(i__main__
Decision_Tree
p0
(dp1
S'children'
p2
(lp3
(i__main__
Decision_Tree
p4
(dp5
g2
(lp6
(i__main__
Decision_Tree
p7
(dp8
g2
(lp9
(i__main__
Decision_Tree
p10
(dp11
g2
(lp12
(i__main__
Decision_Tree
p13
(dp14
g2
(lp15
(i__main__
Decision_Tree
p16
(dp17
g2
(lp18
(i__main__
Decision_Tree
p19
(dp20
S'name'
p21
S'label'
p22
sS'condition'
p23
cnumpy.core.multiarray
scalar
p24
(cnumpy
dtype
p25
(S'i8'
p26
I0
I1
tp27
Rp28
(I3
S'<'
p29
NNNI-1
I-1
I0
tp30
bS'\x04\x00\x00\x00\x00\x00\x00\x00'
p31
tp32
Rp33
sS'constraint'
p34
S'(test_data["Gender"] == "M")'
p35
sba(i__main__
Decision_Tree
p36
(dp37
g21
g22
sg23
g24
(g28
S'\x04\x00\x00\x00\x00\x00\x00\x00'
p38
tp39
Rp40
sg34
S'(test_data["Gender"] == "F")'
p41
sbasg21
S'Gender'
p42
sg23
(lp43
S'M'
p44
aS'F'
p45
asg34
S'(test_data["Occupation"]<=1.5)'
p46
sba(i__main__
Decision_Tree
p47
(dp48
g2
(lp49
(i__main__
Decision_Tree
p50
(dp51
g21
g22
sg23
g24
(g28
S'\x05\x00\x00\x00\x00\x00\x00\x00'
p52
tp53
Rp54
sg34
g35
sba(i__main__
Decision_Tree
p55
(dp56
g21
g22
sg23
g24
(g28
S'\x04\x00\x00\x00\x00\x00\x00\x00'
p57
tp58
Rp59
sg34
g41
sbasg21
g42
sg23
(lp60
g44
ag45
asg34
S'(test_data["Occupation"]>1.5'
p61
sbasg21
S'Occupation'
p62
sg23
g24
(g25
(S'f8'
p63
I0
I1
tp64
Rp65
(I3
S'<'
p66
NNNI-1
I-1
I0
tp67
bS'\x00\x00\x00\x00\x00\x00\xf8?'
p68
tp69
Rp70
sg34
S'(test_data["Age"]<=30.0)'
p71
sba(i__main__
Decision_Tree
p72
(dp73
g2
(lp74
(i__main__
Decision_Tree
p75
(dp76
g2
(lp77
(i__main__
Decision_Tree
p78
(dp79
g21
g22
sg23
g24
(g28
S'\x04\x00\x00\x00\x00\x00\x00\x00'
p80
tp81
Rp82
sg34
g35
sba(i__main__
Decision_Tree
p83
(dp84
g21
g22
sg23
g24
(g28
S'\x04\x00\x00\x00\x00\x00\x00\x00'
p85
tp86
Rp87
sg34
g41
sbasg21
g42
sg23
(lp88
g44
ag45
asg34
S'(test_data["Occupation"]<=1.5)'
p89
sba(i__main__
Decision_Tree
p90
(dp91
g2
(lp92
(i__main__
Decision_Tree
p93
(dp94
g21
g22
sg23
g24
(g28
S'\x04\x00\x00\x00\x00\x00\x00\x00'
p95
tp96
Rp97
sg34
g35
sba(i__main__
Decision_Tree
p98
(dp99
g21
g22
sg23
g24
(g28
S'\x04\x00\x00\x00\x00\x00\x00\x00'
p100
tp101
Rp102
sg34
g41
sbasg21
g42
sg23
(lp103
g44
ag45
asg34
S'(test_data["Occupation"]>1.5'
p104
sbasg21
g62
sg23
g24
(g65
S'\x00\x00\x00\x00\x00\x00\xf8?'
p105
tp106
Rp107
sg34
S'(test_data["Age"]>30.0'
p108
sbasg21
S'Age'
p109
sg23
g24
(g65
S'\x00\x00\x00\x00\x00\x00>@'
p110
tp111
Rp112
sg34
S'(test_data["Genre"]=="Action")'
p113
sba(i__main__
Decision_Tree
p114
(dp115
g2
(lp116
(i__main__
Decision_Tree
p117
(dp118
g2
(lp119
(i__main__
Decision_Tree
p120
(dp121
g2
(lp122
(i__main__
Decision_Tree
p123
(dp124
g21
g22
sg23
g24
(g28
S'\x05\x00\x00\x00\x00\x00\x00\x00'
p125
tp126
Rp127
sg34
g35
sba(i__main__
Decision_Tree
p128
(dp129
g21
g22
sg23
g24
(g28
S'\x05\x00\x00\x00\x00\x00\x00\x00'
p130
tp131
Rp132
sg34
g41
sbasg21
g42
sg23
(lp133
g44
ag45
asg34
S'(test_data["Occupation"]<=2.5)'
p134
sba(i__main__
Decision_Tree
p135
(dp136
g2
(lp137
(i__main__
Decision_Tree
p138
(dp139
g21
g22
sg23
g24
(g28
S'\x05\x00\x00\x00\x00\x00\x00\x00'
p140
tp141
Rp142
sg34
g35
sba(i__main__
Decision_Tree
p143
(dp144
g21
g22
sg23
g24
(g28
S'\x05\x00\x00\x00\x00\x00\x00\x00'
p145
tp146
Rp147
sg34
g41
sbasg21
g42
sg23
(lp148
g44
ag45
asg34
S'(test_data["Occupation"]>2.5'
p149
sbasg21
g62
sg23
g24
(g65
S'\x00\x00\x00\x00\x00\x00\x04@'
p150
tp151
Rp152
sg34
S'(test_data["Age"]<=21.5)'
p153
sba(i__main__
Decision_Tree
p154
(dp155
g2
(lp156
(i__main__
Decision_Tree
p157
(dp158
g2
(lp159
(i__main__
Decision_Tree
p160
(dp161
g21
g22
sg23
g24
(g28
S'\x04\x00\x00\x00\x00\x00\x00\x00'
p162
tp163
Rp164
sg34
g35
sba(i__main__
Decision_Tree
p165
(dp166
g21
g22
sg23
g24
(g28
S'\x04\x00\x00\x00\x00\x00\x00\x00'
p167
tp168
Rp169
sg34
g41
sbasg21
g42
sg23
(lp170
g44
ag45
asg34
S'(test_data["Occupation"]<=11.5)'
p171
sba(i__main__
Decision_Tree
p172
(dp173
g2
(lp174
(i__main__
Decision_Tree
p175
(dp176
g21
g22
sg23
g24
(g28
S'\x04\x00\x00\x00\x00\x00\x00\x00'
p177
tp178
Rp179
sg34
g35
sba(i__main__
Decision_Tree
p180
(dp181
g21
g22
sg23
g24
(g28
S'\x04\x00\x00\x00\x00\x00\x00\x00'
p182
tp183
Rp184
sg34
g41
sbasg21
g42
sg23
(lp185
g44
ag45
asg34
S'(test_data["Occupation"]>11.5'
p186
sbasg21
g62
sg23
g24
(g65
S"\x00\x00\x00\x00\x00\x00'@"
p187
tp188
Rp189
sg34
S'(test_data["Age"]>21.5'
p190
sbasg21
g109
sg23
g24
(g65
S'\x00\x00\x00\x00\x00\x805@'
p191
tp192
Rp193
sg34
S'(test_data["Genre"]=="Adventure")'
p194
sba(i__main__
Decision_Tree
p195
(dp196
g2
(lp197
(i__main__
Decision_Tree
p198
(dp199
g2
(lp200
(i__main__
Decision_Tree
p201
(dp202
g2
(lp203
(i__main__
Decision_Tree
p204
(dp205
g21
g22
sg23
g24
(g28
S'\x04\x00\x00\x00\x00\x00\x00\x00'
p206
tp207
Rp208
sg34
S'(test_data["Occupation"]<=19.5)'
p209
sba(i__main__
Decision_Tree
p210
(dp211
g21
g22
sg23
g24
(g28
S'\x05\x00\x00\x00\x00\x00\x00\x00'
p212
tp213
Rp214
sg34
S'(test_data["Occupation"]>19.5'
p215
sbasg21
g62
sg23
g24
(g65
S'\x00\x00\x00\x00\x00\x803@'
p216
tp217
Rp218
sg34
S'(test_data["Age"]<=21.5)'
p219
sba(i__main__
Decision_Tree
p220
(dp221
g2
(lp222
(i__main__
Decision_Tree
p223
(dp224
g21
g22
sg23
g24
(g28
S'\x04\x00\x00\x00\x00\x00\x00\x00'
p225
tp226
Rp227
sg34
S'(test_data["Occupation"]<=16.5)'
p228
sba(i__main__
Decision_Tree
p229
(dp230
g21
g22
sg23
g24
(g28
S'\x04\x00\x00\x00\x00\x00\x00\x00'
p231
tp232
Rp233
sg34
S'(test_data["Occupation"]>16.5'
p234
sbasg21
g62
sg23
g24
(g65
S'\x00\x00\x00\x00\x00\x800@'
p235
tp236
Rp237
sg34
S'(test_data["Age"]>21.5'
p238
sbasg21
g109
sg23
g24
(g65
S'\x00\x00\x00\x00\x00\x805@'
p239
tp240
Rp241
sg34
g35
sba(i__main__
Decision_Tree
p242
(dp243
g2
(lp244
(i__main__
Decision_Tree
p245
(dp246
g2
(lp247
(i__main__
Decision_Tree
p248
(dp249
g21
g22
sg23
g24
(g28
S'\x04\x00\x00\x00\x00\x00\x00\x00'
p250
tp251
Rp252
sg34
S'(test_data["Occupation"]<=14.5)'
p253
sba(i__main__
Decision_Tree
p254
(dp255
g21
g22
sg23
g24
(g28
S'\x05\x00\x00\x00\x00\x00\x00\x00'
p256
tp257
Rp258
sg34
S'(test_data["Occupation"]>14.5'
p259
sbasg21
g62
sg23
g24
(g65
S'\x00\x00\x00\x00\x00\x00-@'
p260
tp261
Rp262
sg34
S'(test_data["Age"]<=21.5)'
p263
sba(i__main__
Decision_Tree
p264
(dp265
g2
(lp266
(i__main__
Decision_Tree
p267
(dp268
g21
g22
sg23
g24
(g28
S'\x04\x00\x00\x00\x00\x00\x00\x00'
p269
tp270
Rp271
sg34
S'(test_data["Occupation"]<=11.5)'
p272
sba(i__main__
Decision_Tree
p273
(dp274
g21
g22
sg23
g24
(g28
S'\x04\x00\x00\x00\x00\x00\x00\x00'
p275
tp276
Rp277
sg34
S'(test_data["Occupation"]>11.5'
p278
sbasg21
g62
sg23
g24
(g65
S"\x00\x00\x00\x00\x00\x00'@"
p279
tp280
Rp281
sg34
S'(test_data["Age"]>21.5'
p282
sbasg21
g109
sg23
g24
(g65
S'\x00\x00\x00\x00\x00\x805@'
p283
tp284
Rp285
sg34
g41
sbasg21
g42
sg23
(lp286
g44
ag45
asg34
S'(test_data["Genre"]=="Animation")'
p287
sba(i__main__
Decision_Tree
p288
(dp289
g2
(lp290
(i__main__
Decision_Tree
p291
(dp292
g2
(lp293
(i__main__
Decision_Tree
p294
(dp295
g2
(lp296
(i__main__
Decision_Tree
p297
(dp298
g21
g22
sg23
g24
(g28
S'\x04\x00\x00\x00\x00\x00\x00\x00'
p299
tp300
Rp301
sg34
S'(test_data["Occupation"]<=19.5)'
p302
sba(i__main__
Decision_Tree
p303
(dp304
g21
g22
sg23
g24
(g28
S'\x05\x00\x00\x00\x00\x00\x00\x00'
p305
tp306
Rp307
sg34
S'(test_data["Occupation"]>19.5'
p308
sbasg21
g62
sg23
g24
(g65
S'\x00\x00\x00\x00\x00\x803@'
p309
tp310
Rp311
sg34
S'(test_data["Age"]<=21.5)'
p312
sba(i__main__
Decision_Tree
p313
(dp314
g2
(lp315
(i__main__
Decision_Tree
p316
(dp317
g21
g22
sg23
g24
(g28
S'\x04\x00\x00\x00\x00\x00\x00\x00'
p318
tp319
Rp320
sg34
S'(test_data["Occupation"]<=15.5)'
p321
sba(i__main__
Decision_Tree
p322
(dp323
g21
g22
sg23
g24
(g28
S'\x04\x00\x00\x00\x00\x00\x00\x00'
p324
tp325
Rp326
sg34
S'(test_data["Occupation"]>15.5'
p327
sbasg21
g62
sg23
g24
(g65
S'\x00\x00\x00\x00\x00\x00/@'
p328
tp329
Rp330
sg34
S'(test_data["Age"]>21.5'
p331
sbasg21
g109
sg23
g24
(g65
S'\x00\x00\x00\x00\x00\x805@'
p332
tp333
Rp334
sg34
g35
sba(i__main__
Decision_Tree
p335
(dp336
g2
(lp337
(i__main__
Decision_Tree
p338
(dp339
g2
(lp340
(i__main__
Decision_Tree
p341
(dp342
g21
g22
sg23
g24
(g28
S'\x04\x00\x00\x00\x00\x00\x00\x00'
p343
tp344
Rp345
sg34
S'(test_data["Occupation"]<=19.5)'
p346
sba(i__main__
Decision_Tree
p347
(dp348
g21
g22
sg23
g24
(g28
S'\x01\x00\x00\x00\x00\x00\x00\x00'
p349
tp350
Rp351
sg34
S'(test_data["Occupation"]>19.5'
p352
sbasg21
g62
sg23
g24
(g65
S'\x00\x00\x00\x00\x00\x803@'
p353
tp354
Rp355
sg34
S'(test_data["Age"]<=21.5)'
p356
sba(i__main__
Decision_Tree
p357
(dp358
g2
(lp359
(i__main__
Decision_Tree
p360
(dp361
g21
g22
sg23
g24
(g28
S'\x04\x00\x00\x00\x00\x00\x00\x00'
p362
tp363
Rp364
sg34
S'(test_data["Occupation"]<=3.5)'
p365
sba(i__main__
Decision_Tree
p366
(dp367
g21
g22
sg23
g24
(g28
S'\x04\x00\x00\x00\x00\x00\x00\x00'
p368
tp369
Rp370
sg34
S'(test_data["Occupation"]>3.5'
p371
sbasg21
g62
sg23
g24
(g65
S'\x00\x00\x00\x00\x00\x00\x0c@'
p372
tp373
Rp374
sg34
S'(test_data["Age"]>21.5'
p375
sbasg21
g109
sg23
g24
(g65
S'\x00\x00\x00\x00\x00\x805@'
p376
tp377
Rp378
sg34
g41
sbasg21
g42
sg23
(lp379
g44
ag45
asg34
S'(test_data["Genre"]=="Children\'s")'
p380
sba(i__main__
Decision_Tree
p381
(dp382
g2
(lp383
(i__main__
Decision_Tree
p384
(dp385
g2
(lp386
(i__main__
Decision_Tree
p387
(dp388
g2
(lp389
(i__main__
Decision_Tree
p390
(dp391
g21
g22
sg23
g24
(g28
S'\x04\x00\x00\x00\x00\x00\x00\x00'
p392
tp393
Rp394
sg34
S'(test_data["Occupation"]<=5.5)'
p395
sba(i__main__
Decision_Tree
p396
(dp397
g21
g22
sg23
g24
(g28
S'\x04\x00\x00\x00\x00\x00\x00\x00'
p398
tp399
Rp400
sg34
S'(test_data["Occupation"]>5.5'
p401
sbasg21
g62
sg23
g24
(g65
S'\x00\x00\x00\x00\x00\x00\x16@'
p402
tp403
Rp404
sg34
S'(test_data["Age"]<=21.5)'
p405
sba(i__main__
Decision_Tree
p406
(dp407
g2
(lp408
(i__main__
Decision_Tree
p409
(dp410
g21
g22
sg23
g24
(g28
S'\x04\x00\x00\x00\x00\x00\x00\x00'
p411
tp412
Rp413
sg34
S'(test_data["Occupation"]<=4.5)'
p414
sba(i__main__
Decision_Tree
p415
(dp416
g21
g22
sg23
g24
(g28
S'\x04\x00\x00\x00\x00\x00\x00\x00'
p417
tp418
Rp419
sg34
S'(test_data["Occupation"]>4.5'
p420
sbasg21
g62
sg23
g24
(g65
S'\x00\x00\x00\x00\x00\x00\x12@'
p421
tp422
Rp423
sg34
S'(test_data["Age"]>21.5'
p424
sbasg21
g109
sg23
g24
(g65
S'\x00\x00\x00\x00\x00\x805@'
p425
tp426
Rp427
sg34
g35
sba(i__main__
Decision_Tree
p428
(dp429
g2
(lp430
(i__main__
Decision_Tree
p431
(dp432
g2
(lp433
(i__main__
Decision_Tree
p434
(dp435
g21
g22
sg23
g24
(g28
S'\x04\x00\x00\x00\x00\x00\x00\x00'
p436
tp437
Rp438
sg34
S'(test_data["Occupation"]<=2.5)'
p439
sba(i__main__
Decision_Tree
p440
(dp441
g21
g22
sg23
g24
(g28
S'\x05\x00\x00\x00\x00\x00\x00\x00'
p442
tp443
Rp444
sg34
S'(test_data["Occupation"]>2.5'
p445
sbasg21
g62
sg23
g24
(g65
S'\x00\x00\x00\x00\x00\x00\x04@'
p446
tp447
Rp448
sg34
S'(test_data["Age"]<=21.5)'
p449
sba(i__main__
Decision_Tree
p450
(dp451
g2
(lp452
(i__main__
Decision_Tree
p453
(dp454
g21
g22
sg23
g24
(g28
S'\x04\x00\x00\x00\x00\x00\x00\x00'
p455
tp456
Rp457
sg34
S'(test_data["Occupation"]<=12.5)'
p458
sba(i__main__
Decision_Tree
p459
(dp460
g21
g22
sg23
g24
(g28
S'\x04\x00\x00\x00\x00\x00\x00\x00'
p461
tp462
Rp463
sg34
S'(test_data["Occupation"]>12.5'
p464
sbasg21
g62
sg23
g24
(g65
S'\x00\x00\x00\x00\x00\x00)@'
p465
tp466
Rp467
sg34
S'(test_data["Age"]>21.5'
p468
sbasg21
g109
sg23
g24
(g65
S'\x00\x00\x00\x00\x00\x805@'
p469
tp470
Rp471
sg34
g41
sbasg21
g42
sg23
(lp472
g44
ag45
asg34
S'(test_data["Genre"]=="Comedy")'
p473
sba(i__main__
Decision_Tree
p474
(dp475
g2
(lp476
(i__main__
Decision_Tree
p477
(dp478
g2
(lp479
(i__main__
Decision_Tree
p480
(dp481
g2
(lp482
(i__main__
Decision_Tree
p483
(dp484
g21
g22
sg23
g24
(g28
S'\x05\x00\x00\x00\x00\x00\x00\x00'
p485
tp486
Rp487
sg34
g35
sba(i__main__
Decision_Tree
p488
(dp489
g21
g22
sg23
g24
(g28
S'\x05\x00\x00\x00\x00\x00\x00\x00'
p490
tp491
Rp492
sg34
g41
sbasg21
g42
sg23
(lp493
g44
ag45
asg34
S'(test_data["Occupation"]<=3.5)'
p494
sba(i__main__
Decision_Tree
p495
(dp496
g2
(lp497
(i__main__
Decision_Tree
p498
(dp499
g21
g22
sg23
g24
(g28
S'\x05\x00\x00\x00\x00\x00\x00\x00'
p500
tp501
Rp502
sg34
g35
sba(i__main__
Decision_Tree
p503
(dp504
g21
g22
sg23
g24
(g28
S'\x05\x00\x00\x00\x00\x00\x00\x00'
p505
tp506
Rp507
sg34
g41
sbasg21
g42
sg23
(lp508
g44
ag45
asg34
S'(test_data["Occupation"]>3.5'
p509
sbasg21
g62
sg23
g24
(g65
S'\x00\x00\x00\x00\x00\x00\x0c@'
p510
tp511
Rp512
sg34
S'(test_data["Age"]<=30.0)'
p513
sba(i__main__
Decision_Tree
p514
(dp515
g2
(lp516
(i__main__
Decision_Tree
p517
(dp518
g2
(lp519
(i__main__
Decision_Tree
p520
(dp521
g21
g22
sg23
g24
(g28
S'\x05\x00\x00\x00\x00\x00\x00\x00'
p522
tp523
Rp524
sg34
g35
sba(i__main__
Decision_Tree
p525
(dp526
g21
g22
sg23
g24
(g28
S'\x04\x00\x00\x00\x00\x00\x00\x00'
p527
tp528
Rp529
sg34
g41
sbasg21
g42
sg23
(lp530
g44
ag45
asg34
S'(test_data["Occupation"]<=18.5)'
p531
sba(i__main__
Decision_Tree
p532
(dp533
g2
(lp534
(i__main__
Decision_Tree
p535
(dp536
g21
g22
sg23
g24
(g28
S'\x05\x00\x00\x00\x00\x00\x00\x00'
p537
tp538
Rp539
sg34
g35
sba(i__main__
Decision_Tree
p540
(dp541
g21
g22
sg23
g24
(g28
S'\x04\x00\x00\x00\x00\x00\x00\x00'
p542
tp543
Rp544
sg34
g41
sbasg21
g42
sg23
(lp545
g44
ag45
asg34
S'(test_data["Occupation"]>18.5'
p546
sbasg21
g62
sg23
g24
(g65
S'\x00\x00\x00\x00\x00\x802@'
p547
tp548
Rp549
sg34
S'(test_data["Age"]>30.0'
p550
sbasg21
g109
sg23
g24
(g65
S'\x00\x00\x00\x00\x00\x00>@'
p551
tp552
Rp553
sg34
S'(test_data["Genre"]=="Crime")'
p554
sba(i__main__
Decision_Tree
p555
(dp556
g2
(lp557
(i__main__
Decision_Tree
p558
(dp559
g2
(lp560
(i__main__
Decision_Tree
p561
(dp562
g2
(lp563
(i__main__
Decision_Tree
p564
(dp565
g21
g22
sg23
g24
(g28
S'\x05\x00\x00\x00\x00\x00\x00\x00'
p566
tp567
Rp568
sg34
S'(test_data["Age"]<=30.0)'
p569
sba(i__main__
Decision_Tree
p570
(dp571
g21
g22
sg23
g24
(g28
S'\x04\x00\x00\x00\x00\x00\x00\x00'
p572
tp573
Rp574
sg34
S'(test_data["Age"]>30.0'
p575
sbasg21
g109
sg23
g24
(g65
S'\x00\x00\x00\x00\x00\x00>@'
p576
tp577
Rp578
sg34
S'(test_data["Occupation"]<=4.5)'
p579
sba(i__main__
Decision_Tree
p580
(dp581
g2
(lp582
(i__main__
Decision_Tree
p583
(dp584
g21
g22
sg23
g24
(g28
S'\x04\x00\x00\x00\x00\x00\x00\x00'
p585
tp586
Rp587
sg34
S'(test_data["Age"]<=53.0)'
p588
sba(i__main__
Decision_Tree
p589
(dp590
g21
g22
sg23
g24
(g28
S'\x04\x00\x00\x00\x00\x00\x00\x00'
p591
tp592
Rp593
sg34
S'(test_data["Age"]>53.0'
p594
sbasg21
g109
sg23
g24
(g65
S'\x00\x00\x00\x00\x00\x80J@'
p595
tp596
Rp597
sg34
S'(test_data["Occupation"]>4.5'
p598
sbasg21
g62
sg23
g24
(g65
S'\x00\x00\x00\x00\x00\x00\x12@'
p599
tp600
Rp601
sg34
g35
sba(i__main__
Decision_Tree
p602
(dp603
g2
(lp604
(i__main__
Decision_Tree
p605
(dp606
g2
(lp607
(i__main__
Decision_Tree
p608
(dp609
g21
g22
sg23
g24
(g28
S'\x03\x00\x00\x00\x00\x00\x00\x00'
p610
tp611
Rp612
sg34
S'(test_data["Age"]<=40.0)'
p613
sba(i__main__
Decision_Tree
p614
(dp615
g21
g22
sg23
g24
(g28
S'\x03\x00\x00\x00\x00\x00\x00\x00'
p616
tp617
Rp618
sg34
S'(test_data["Age"]>40.0'
p619
sbasg21
g109
sg23
g24
(g65
S'\x00\x00\x00\x00\x00\x00D@'
p620
tp621
Rp622
sg34
S'(test_data["Occupation"]<=5.0)'
p623
sba(i__main__
Decision_Tree
p624
(dp625
g2
(lp626
(i__main__
Decision_Tree
p627
(dp628
g21
g22
sg23
g24
(g28
S'\x04\x00\x00\x00\x00\x00\x00\x00'
p629
tp630
Rp631
sg34
S'(test_data["Age"]<=30.0)'
p632
sba(i__main__
Decision_Tree
p633
(dp634
g21
g22
sg23
g24
(g28
S'\x03\x00\x00\x00\x00\x00\x00\x00'
p635
tp636
Rp637
sg34
S'(test_data["Age"]>30.0'
p638
sbasg21
g109
sg23
g24
(g65
S'\x00\x00\x00\x00\x00\x00>@'
p639
tp640
Rp641
sg34
S'(test_data["Occupation"]>5.0'
p642
sbasg21
g62
sg23
g24
(g65
S'\x00\x00\x00\x00\x00\x00\x14@'
p643
tp644
Rp645
sg34
g41
sbasg21
g42
sg23
(lp646
g44
ag45
asg34
S'(test_data["Genre"]=="Documentary")'
p647
sba(i__main__
Decision_Tree
p648
(dp649
g2
(lp650
(i__main__
Decision_Tree
p651
(dp652
g2
(lp653
(i__main__
Decision_Tree
p654
(dp655
g2
(lp656
(i__main__
Decision_Tree
p657
(dp658
g21
g22
sg23
g24
(g28
S'\x05\x00\x00\x00\x00\x00\x00\x00'
p659
tp660
Rp661
sg34
g35
sba(i__main__
Decision_Tree
p662
(dp663
g21
g22
sg23
g24
(g28
S'\x04\x00\x00\x00\x00\x00\x00\x00'
p664
tp665
Rp666
sg34
g41
sbasg21
g42
sg23
(lp667
g44
ag45
asg34
S'(test_data["Occupation"]<=4.5)'
p668
sba(i__main__
Decision_Tree
p669
(dp670
g2
(lp671
(i__main__
Decision_Tree
p672
(dp673
g21
g22
sg23
g24
(g28
S'\x05\x00\x00\x00\x00\x00\x00\x00'
p674
tp675
Rp676
sg34
g35
sba(i__main__
Decision_Tree
p677
(dp678
g21
g22
sg23
g24
(g28
S'\x05\x00\x00\x00\x00\x00\x00\x00'
p679
tp680
Rp681
sg34
g41
sbasg21
g42
sg23
(lp682
g44
ag45
asg34
S'(test_data["Occupation"]>4.5'
p683
sbasg21
g62
sg23
g24
(g65
S'\x00\x00\x00\x00\x00\x00\x12@'
p684
tp685
Rp686
sg34
S'(test_data["Age"]<=21.5)'
p687
sba(i__main__
Decision_Tree
p688
(dp689
g2
(lp690
(i__main__
Decision_Tree
p691
(dp692
g2
(lp693
(i__main__
Decision_Tree
p694
(dp695
g21
g22
sg23
g24
(g28
S'\x04\x00\x00\x00\x00\x00\x00\x00'
p696
tp697
Rp698
sg34
g35
sba(i__main__
Decision_Tree
p699
(dp700
g21
g22
sg23
g24
(g28
S'\x04\x00\x00\x00\x00\x00\x00\x00'
p701
tp702
Rp703
sg34
g41
sbasg21
g42
sg23
(lp704
g44
ag45
asg34
S'(test_data["Occupation"]<=10.5)'
p705
sba(i__main__
Decision_Tree
p706
(dp707
g2
(lp708
(i__main__
Decision_Tree
p709
(dp710
g21
g22
sg23
g24
(g28
S'\x05\x00\x00\x00\x00\x00\x00\x00'
p711
tp712
Rp713
sg34
g35
sba(i__main__
Decision_Tree
p714
(dp715
g21
g22
sg23
g24
(g28
S'\x04\x00\x00\x00\x00\x00\x00\x00'
p716
tp717
Rp718
sg34
g41
sbasg21
g42
sg23
(lp719
g44
ag45
asg34
S'(test_data["Occupation"]>10.5'
p720
sbasg21
g62
sg23
g24
(g65
S'\x00\x00\x00\x00\x00\x00%@'
p721
tp722
Rp723
sg34
S'(test_data["Age"]>21.5'
p724
sbasg21
g109
sg23
g24
(g65
S'\x00\x00\x00\x00\x00\x805@'
p725
tp726
Rp727
sg34
S'(test_data["Genre"]=="Drama")'
p728
sba(i__main__
Decision_Tree
p729
(dp730
g2
(lp731
(i__main__
Decision_Tree
p732
(dp733
g2
(lp734
(i__main__
Decision_Tree
p735
(dp736
g2
(lp737
(i__main__
Decision_Tree
p738
(dp739
g21
g22
sg23
g24
(g28
S'\x05\x00\x00\x00\x00\x00\x00\x00'
p740
tp741
Rp742
sg34
S'(test_data["Occupation"]<=19.5)'
p743
sba(i__main__
Decision_Tree
p744
(dp745
g21
g22
sg23
g24
(g28
S'\x05\x00\x00\x00\x00\x00\x00\x00'
p746
tp747
Rp748
sg34
S'(test_data["Occupation"]>19.5'
p749
sbasg21
g62
sg23
g24
(g65
S'\x00\x00\x00\x00\x00\x803@'
p750
tp751
Rp752
sg34
S'(test_data["Age"]<=30.0)'
p753
sba(i__main__
Decision_Tree
p754
(dp755
g2
(lp756
(i__main__
Decision_Tree
p757
(dp758
g21
g22
sg23
g24
(g28
S'\x05\x00\x00\x00\x00\x00\x00\x00'
p759
tp760
Rp761
sg34
S'(test_data["Occupation"]<=11.5)'
p762
sba(i__main__
Decision_Tree
p763
(dp764
g21
g22
sg23
g24
(g28
S'\x05\x00\x00\x00\x00\x00\x00\x00'
p765
tp766
Rp767
sg34
S'(test_data["Occupation"]>11.5'
p768
sbasg21
g62
sg23
g24
(g65
S"\x00\x00\x00\x00\x00\x00'@"
p769
tp770
Rp771
sg34
S'(test_data["Age"]>30.0'
p772
sbasg21
g109
sg23
g24
(g65
S'\x00\x00\x00\x00\x00\x00>@'
p773
tp774
Rp775
sg34
g35
sba(i__main__
Decision_Tree
p776
(dp777
g2
(lp778
(i__main__
Decision_Tree
p779
(dp780
g2
(lp781
(i__main__
Decision_Tree
p782
(dp783
g21
g22
sg23
g24
(g28
S'\x05\x00\x00\x00\x00\x00\x00\x00'
p784
tp785
Rp786
sg34
S'(test_data["Age"]<=9.5)'
p787
sba(i__main__
Decision_Tree
p788
(dp789
g21
g22
sg23
g24
(g28
S'\x04\x00\x00\x00\x00\x00\x00\x00'
p790
tp791
Rp792
sg34
S'(test_data["Age"]>9.5'
p793
sbasg21
g109
sg23
g24
(g65
S'\x00\x00\x00\x00\x00\x00#@'
p794
tp795
Rp796
sg34
S'(test_data["Occupation"]<=4.5)'
p797
sba(i__main__
Decision_Tree
p798
(dp799
g2
(lp800
(i__main__
Decision_Tree
p801
(dp802
g21
g22
sg23
g24
(g28
S'\x05\x00\x00\x00\x00\x00\x00\x00'
p803
tp804
Rp805
sg34
S'(test_data["Age"]<=40.0)'
p806
sba(i__main__
Decision_Tree
p807
(dp808
g21
g22
sg23
g24
(g28
S'\x05\x00\x00\x00\x00\x00\x00\x00'
p809
tp810
Rp811
sg34
S'(test_data["Age"]>40.0'
p812
sbasg21
g109
sg23
g24
(g65
S'\x00\x00\x00\x00\x00\x00D@'
p813
tp814
Rp815
sg34
S'(test_data["Occupation"]>4.5'
p816
sbasg21
g62
sg23
g24
(g65
S'\x00\x00\x00\x00\x00\x00\x12@'
p817
tp818
Rp819
sg34
g41
sbasg21
g42
sg23
(lp820
g44
ag45
asg34
S'(test_data["Genre"]=="Fantasy")'
p821
sba(i__main__
Decision_Tree
p822
(dp823
g2
(lp824
(i__main__
Decision_Tree
p825
(dp826
g2
(lp827
(i__main__
Decision_Tree
p828
(dp829
g2
(lp830
(i__main__
Decision_Tree
p831
(dp832
g21
g22
sg23
g24
(g28
S'\x05\x00\x00\x00\x00\x00\x00\x00'
p833
tp834
Rp835
sg34
g35
sba(i__main__
Decision_Tree
p836
(dp837
g21
g22
sg23
g24
(g28
S'\x05\x00\x00\x00\x00\x00\x00\x00'
p838
tp839
Rp840
sg34
g41
sbasg21
g42
sg23
(lp841
g44
ag45
asg34
S'(test_data["Occupation"]<=4.5)'
p842
sba(i__main__
Decision_Tree
p843
(dp844
g2
(lp845
(i__main__
Decision_Tree
p846
(dp847
g21
g22
sg23
g24
(g28
S'\x05\x00\x00\x00\x00\x00\x00\x00'
p848
tp849
Rp850
sg34
g35
sba(i__main__
Decision_Tree
p851
(dp852
g21
g22
sg23
g24
(g28
S'\x05\x00\x00\x00\x00\x00\x00\x00'
p853
tp854
Rp855
sg34
g41
sbasg21
g42
sg23
(lp856
g44
ag45
asg34
S'(test_data["Occupation"]>4.5'
p857
sbasg21
g62
sg23
g24
(g65
S'\x00\x00\x00\x00\x00\x00\x12@'
p858
tp859
Rp860
sg34
S'(test_data["Age"]<=21.5)'
p861
sba(i__main__
Decision_Tree
p862
(dp863
g2
(lp864
(i__main__
Decision_Tree
p865
(dp866
g2
(lp867
(i__main__
Decision_Tree
p868
(dp869
g21
g22
sg23
g24
(g28
S'\x05\x00\x00\x00\x00\x00\x00\x00'
p870
tp871
Rp872
sg34
g35
sba(i__main__
Decision_Tree
p873
(dp874
g21
g22
sg23
g24
(g28
S'\x05\x00\x00\x00\x00\x00\x00\x00'
p875
tp876
Rp877
sg34
g41
sbasg21
g42
sg23
(lp878
g44
ag45
asg34
S'(test_data["Occupation"]<=14.5)'
p879
sba(i__main__
Decision_Tree
p880
(dp881
g2
(lp882
(i__main__
Decision_Tree
p883
(dp884
g21
g22
sg23
g24
(g28
S'\x05\x00\x00\x00\x00\x00\x00\x00'
p885
tp886
Rp887
sg34
g35
sba(i__main__
Decision_Tree
p888
(dp889
g21
g22
sg23
g24
(g28
S'\x05\x00\x00\x00\x00\x00\x00\x00'
p890
tp891
Rp892
sg34
g41
sbasg21
g42
sg23
(lp893
g44
ag45
asg34
S'(test_data["Occupation"]>14.5'
p894
sbasg21
g62
sg23
g24
(g65
S'\x00\x00\x00\x00\x00\x00-@'
p895
tp896
Rp897
sg34
S'(test_data["Age"]>21.5'
p898
sbasg21
g109
sg23
g24
(g65
S'\x00\x00\x00\x00\x00\x805@'
p899
tp900
Rp901
sg34
S'(test_data["Genre"]=="Film-Noir")'
p902
sba(i__main__
Decision_Tree
p903
(dp904
g2
(lp905
(i__main__
Decision_Tree
p906
(dp907
g2
(lp908
(i__main__
Decision_Tree
p909
(dp910
g2
(lp911
(i__main__
Decision_Tree
p912
(dp913
g21
g22
sg23
g24
(g28
S'\x04\x00\x00\x00\x00\x00\x00\x00'
p914
tp915
Rp916
sg34
g35
sba(i__main__
Decision_Tree
p917
(dp918
g21
g22
sg23
g24
(g28
S'\x04\x00\x00\x00\x00\x00\x00\x00'
p919
tp920
Rp921
sg34
g41
sbasg21
g42
sg23
(lp922
g44
ag45
asg34
S'(test_data["Occupation"]<=11.5)'
p923
sba(i__main__
Decision_Tree
p924
(dp925
g2
(lp926
(i__main__
Decision_Tree
p927
(dp928
g21
g22
sg23
g24
(g28
S'\x04\x00\x00\x00\x00\x00\x00\x00'
p929
tp930
Rp931
sg34
g35
sba(i__main__
Decision_Tree
p932
(dp933
g21
g22
sg23
g24
(g28
S'\x04\x00\x00\x00\x00\x00\x00\x00'
p934
tp935
Rp936
sg34
g41
sbasg21
g42
sg23
(lp937
g44
ag45
asg34
S'(test_data["Occupation"]>11.5'
p938
sbasg21
g62
sg23
g24
(g65
S"\x00\x00\x00\x00\x00\x00'@"
p939
tp940
Rp941
sg34
S'(test_data["Age"]<=47.5)'
p942
sba(i__main__
Decision_Tree
p943
(dp944
g2
(lp945
(i__main__
Decision_Tree
p946
(dp947
g2
(lp948
(i__main__
Decision_Tree
p949
(dp950
g21
g22
sg23
g24
(g28
S'\x04\x00\x00\x00\x00\x00\x00\x00'
p951
tp952
Rp953
sg34
S'(test_data["Occupation"]<=0.5)'
p954
sba(i__main__
Decision_Tree
p955
(dp956
g21
g22
sg23
g24
(g28
S'\x05\x00\x00\x00\x00\x00\x00\x00'
p957
tp958
Rp959
sg34
S'(test_data["Occupation"]>0.5'
p960
sbasg21
g62
sg23
g24
(g65
S'\x00\x00\x00\x00\x00\x00\xe0?'
p961
tp962
Rp963
sg34
g35
sba(i__main__
Decision_Tree
p964
(dp965
g2
(lp966
(i__main__
Decision_Tree
p967
(dp968
g21
g22
sg23
g24
(g28
S'\x04\x00\x00\x00\x00\x00\x00\x00'
p969
tp970
Rp971
sg34
S'(test_data["Occupation"]<=13.5)'
p972
sba(i__main__
Decision_Tree
p973
(dp974
g21
g22
sg23
g24
(g28
S'\x03\x00\x00\x00\x00\x00\x00\x00'
p975
tp976
Rp977
sg34
S'(test_data["Occupation"]>13.5'
p978
sbasg21
g62
sg23
g24
(g65
S'\x00\x00\x00\x00\x00\x00+@'
p979
tp980
Rp981
sg34
g41
sbasg21
g42
sg23
(lp982
g44
ag45
asg34
S'(test_data["Age"]>47.5'
p983
sbasg21
g109
sg23
g24
(g65
S'\x00\x00\x00\x00\x00\xc0G@'
p984
tp985
Rp986
sg34
S'(test_data["Genre"]=="Horror")'
p987
sba(i__main__
Decision_Tree
p988
(dp989
g2
(lp990
(i__main__
Decision_Tree
p991
(dp992
g2
(lp993
(i__main__
Decision_Tree
p994
(dp995
g2
(lp996
(i__main__
Decision_Tree
p997
(dp998
g21
g22
sg23
g24
(g28
S'\x04\x00\x00\x00\x00\x00\x00\x00'
p999
tp1000
Rp1001
sg34
S'(test_data["Occupation"]<=5.5)'
p1002
sba(i__main__
Decision_Tree
p1003
(dp1004
g21
g22
sg23
g24
(g28
S'\x04\x00\x00\x00\x00\x00\x00\x00'
p1005
tp1006
Rp1007
sg34
S'(test_data["Occupation"]>5.5'
p1008
sbasg21
g62
sg23
g24
(g65
S'\x00\x00\x00\x00\x00\x00\x16@'
p1009
tp1010
Rp1011
sg34
S'(test_data["Age"]<=21.5)'
p1012
sba(i__main__
Decision_Tree
p1013
(dp1014
g2
(lp1015
(i__main__
Decision_Tree
p1016
(dp1017
g21
g22
sg23
g24
(g28
S'\x04\x00\x00\x00\x00\x00\x00\x00'
p1018
tp1019
Rp1020
sg34
S'(test_data["Occupation"]<=5.5)'
p1021
sba(i__main__
Decision_Tree
p1022
(dp1023
g21
g22
sg23
g24
(g28
S'\x04\x00\x00\x00\x00\x00\x00\x00'
p1024
tp1025
Rp1026
sg34
S'(test_data["Occupation"]>5.5'
p1027
sbasg21
g62
sg23
g24
(g65
S'\x00\x00\x00\x00\x00\x00\x16@'
p1028
tp1029
Rp1030
sg34
S'(test_data["Age"]>21.5'
p1031
sbasg21
g109
sg23
g24
(g65
S'\x00\x00\x00\x00\x00\x805@'
p1032
tp1033
Rp1034
sg34
g35
sba(i__main__
Decision_Tree
p1035
(dp1036
g2
(lp1037
(i__main__
Decision_Tree
p1038
(dp1039
g2
(lp1040
(i__main__
Decision_Tree
p1041
(dp1042
g21
g22
sg23
g24
(g28
S'\x04\x00\x00\x00\x00\x00\x00\x00'
p1043
tp1044
Rp1045
sg34
S'(test_data["Occupation"]<=16.0)'
p1046
sba(i__main__
Decision_Tree
p1047
(dp1048
g21
g22
sg23
g24
(g28
S'\x05\x00\x00\x00\x00\x00\x00\x00'
p1049
tp1050
Rp1051
sg34
S'(test_data["Occupation"]>16.0'
p1052
sbasg21
g62
sg23
g24
(g65
S'\x00\x00\x00\x00\x00\x000@'
p1053
tp1054
Rp1055
sg34
S'(test_data["Age"]<=21.5)'
p1056
sba(i__main__
Decision_Tree
p1057
(dp1058
g2
(lp1059
(i__main__
Decision_Tree
p1060
(dp1061
g21
g22
sg23
g24
(g28
S'\x04\x00\x00\x00\x00\x00\x00\x00'
p1062
tp1063
Rp1064
sg34
S'(test_data["Occupation"]<=1.5)'
p1065
sba(i__main__
Decision_Tree
p1066
(dp1067
g21
g22
sg23
g24
(g28
S'\x04\x00\x00\x00\x00\x00\x00\x00'
p1068
tp1069
Rp1070
sg34
S'(test_data["Occupation"]>1.5'
p1071
sbasg21
g62
sg23
g24
(g65
S'\x00\x00\x00\x00\x00\x00\xf8?'
p1072
tp1073
Rp1074
sg34
S'(test_data["Age"]>21.5'
p1075
sbasg21
g109
sg23
g24
(g65
S'\x00\x00\x00\x00\x00\x805@'
p1076
tp1077
Rp1078
sg34
g41
sbasg21
g42
sg23
(lp1079
g44
ag45
asg34
S'(test_data["Genre"]=="Musical")'
p1080
sba(i__main__
Decision_Tree
p1081
(dp1082
g2
(lp1083
(i__main__
Decision_Tree
p1084
(dp1085
g2
(lp1086
(i__main__
Decision_Tree
p1087
(dp1088
g2
(lp1089
(i__main__
Decision_Tree
p1090
(dp1091
g21
g22
sg23
g24
(g28
S'\x05\x00\x00\x00\x00\x00\x00\x00'
p1092
tp1093
Rp1094
sg34
g35
sba(i__main__
Decision_Tree
p1095
(dp1096
g21
g22
sg23
g24
(g28
S'\x05\x00\x00\x00\x00\x00\x00\x00'
p1097
tp1098
Rp1099
sg34
g41
sbasg21
g42
sg23
(lp1100
g44
ag45
asg34
S'(test_data["Occupation"]<=4.5)'
p1101
sba(i__main__
Decision_Tree
p1102
(dp1103
g2
(lp1104
(i__main__
Decision_Tree
p1105
(dp1106
g21
g22
sg23
g24
(g28
S'\x05\x00\x00\x00\x00\x00\x00\x00'
p1107
tp1108
Rp1109
sg34
g35
sba(i__main__
Decision_Tree
p1110
(dp1111
g21
g22
sg23
g24
(g28
S'\x05\x00\x00\x00\x00\x00\x00\x00'
p1112
tp1113
Rp1114
sg34
g41
sbasg21
g42
sg23
(lp1115
g44
ag45
asg34
S'(test_data["Occupation"]>4.5'
p1116
sbasg21
g62
sg23
g24
(g65
S'\x00\x00\x00\x00\x00\x00\x12@'
p1117
tp1118
Rp1119
sg34
S'(test_data["Age"]<=21.5)'
p1120
sba(i__main__
Decision_Tree
p1121
(dp1122
g2
(lp1123
(i__main__
Decision_Tree
p1124
(dp1125
g2
(lp1126
(i__main__
Decision_Tree
p1127
(dp1128
g21
g22
sg23
g24
(g28
S'\x05\x00\x00\x00\x00\x00\x00\x00'
p1129
tp1130
Rp1131
sg34
g35
sba(i__main__
Decision_Tree
p1132
(dp1133
g21
g22
sg23
g24
(g28
S'\x05\x00\x00\x00\x00\x00\x00\x00'
p1134
tp1135
Rp1136
sg34
g41
sbasg21
g42
sg23
(lp1137
g44
ag45
asg34
S'(test_data["Occupation"]<=1.5)'
p1138
sba(i__main__
Decision_Tree
p1139
(dp1140
g2
(lp1141
(i__main__
Decision_Tree
p1142
(dp1143
g21
g22
sg23
g24
(g28
S'\x05\x00\x00\x00\x00\x00\x00\x00'
p1144
tp1145
Rp1146
sg34
g35
sba(i__main__
Decision_Tree
p1147
(dp1148
g21
g22
sg23
g24
(g28
S'\x05\x00\x00\x00\x00\x00\x00\x00'
p1149
tp1150
Rp1151
sg34
g41
sbasg21
g42
sg23
(lp1152
g44
ag45
asg34
S'(test_data["Occupation"]>1.5'
p1153
sbasg21
g62
sg23
g24
(g65
S'\x00\x00\x00\x00\x00\x00\xf8?'
p1154
tp1155
Rp1156
sg34
S'(test_data["Age"]>21.5'
p1157
sbasg21
g109
sg23
g24
(g65
S'\x00\x00\x00\x00\x00\x805@'
p1158
tp1159
Rp1160
sg34
S'(test_data["Genre"]=="Mystery")'
p1161
sba(i__main__
Decision_Tree
p1162
(dp1163
g2
(lp1164
(i__main__
Decision_Tree
p1165
(dp1166
g2
(lp1167
(i__main__
Decision_Tree
p1168
(dp1169
g2
(lp1170
(i__main__
Decision_Tree
p1171
(dp1172
g21
g22
sg23
g24
(g28
S'\x05\x00\x00\x00\x00\x00\x00\x00'
p1173
tp1174
Rp1175
sg34
S'(test_data["Occupation"]<=6.5)'
p1176
sba(i__main__
Decision_Tree
p1177
(dp1178
g21
g22
sg23
g24
(g28
S'\x05\x00\x00\x00\x00\x00\x00\x00'
p1179
tp1180
Rp1181
sg34
S'(test_data["Occupation"]>6.5'
p1182
sbasg21
g62
sg23
g24
(g65
S'\x00\x00\x00\x00\x00\x00\x1a@'
p1183
tp1184
Rp1185
sg34
S'(test_data["Age"]<=21.5)'
p1186
sba(i__main__
Decision_Tree
p1187
(dp1188
g2
(lp1189
(i__main__
Decision_Tree
p1190
(dp1191
g21
g22
sg23
g24
(g28
S'\x04\x00\x00\x00\x00\x00\x00\x00'
p1192
tp1193
Rp1194
sg34
S'(test_data["Occupation"]<=6.5)'
p1195
sba(i__main__
Decision_Tree
p1196
(dp1197
g21
g22
sg23
g24
(g28
S'\x04\x00\x00\x00\x00\x00\x00\x00'
p1198
tp1199
Rp1200
sg34
S'(test_data["Occupation"]>6.5'
p1201
sbasg21
g62
sg23
g24
(g65
S'\x00\x00\x00\x00\x00\x00\x1a@'
p1202
tp1203
Rp1204
sg34
S'(test_data["Age"]>21.5'
p1205
sbasg21
g109
sg23
g24
(g65
S'\x00\x00\x00\x00\x00\x805@'
p1206
tp1207
Rp1208
sg34
g35
sba(i__main__
Decision_Tree
p1209
(dp1210
g2
(lp1211
(i__main__
Decision_Tree
p1212
(dp1213
g2
(lp1214
(i__main__
Decision_Tree
p1215
(dp1216
g21
g22
sg23
g24
(g28
S'\x04\x00\x00\x00\x00\x00\x00\x00'
p1217
tp1218
Rp1219
sg34
S'(test_data["Occupation"]<=17.5)'
p1220
sba(i__main__
Decision_Tree
p1221
(dp1222
g21
g22
sg23
g24
(g28
S'\x05\x00\x00\x00\x00\x00\x00\x00'
p1223
tp1224
Rp1225
sg34
S'(test_data["Occupation"]>17.5'
p1226
sbasg21
g62
sg23
g24
(g65
S'\x00\x00\x00\x00\x00\x801@'
p1227
tp1228
Rp1229
sg34
S'(test_data["Age"]<=53.0)'
p1230
sba(i__main__
Decision_Tree
p1231
(dp1232
g2
(lp1233
(i__main__
Decision_Tree
p1234
(dp1235
g21
g22
sg23
g24
(g28
S'\x05\x00\x00\x00\x00\x00\x00\x00'
p1236
tp1237
Rp1238
sg34
S'(test_data["Occupation"]<=18.0)'
p1239
sba(i__main__
Decision_Tree
p1240
(dp1241
g21
g22
sg23
g24
(g28
S'\x05\x00\x00\x00\x00\x00\x00\x00'
p1242
tp1243
Rp1244
sg34
S'(test_data["Occupation"]>18.0'
p1245
sbasg21
g62
sg23
g24
(g65
S'\x00\x00\x00\x00\x00\x002@'
p1246
tp1247
Rp1248
sg34
S'(test_data["Age"]>53.0'
p1249
sbasg21
g109
sg23
g24
(g65
S'\x00\x00\x00\x00\x00\x80J@'
p1250
tp1251
Rp1252
sg34
g41
sbasg21
g42
sg23
(lp1253
g44
ag45
asg34
S'(test_data["Genre"]=="Romance")'
p1254
sba(i__main__
Decision_Tree
p1255
(dp1256
g2
(lp1257
(i__main__
Decision_Tree
p1258
(dp1259
g2
(lp1260
(i__main__
Decision_Tree
p1261
(dp1262
g2
(lp1263
(i__main__
Decision_Tree
p1264
(dp1265
g21
g22
sg23
g24
(g28
S'\x05\x00\x00\x00\x00\x00\x00\x00'
p1266
tp1267
Rp1268
sg34
g35
sba(i__main__
Decision_Tree
p1269
(dp1270
g21
g22
sg23
g24
(g28
S'\x04\x00\x00\x00\x00\x00\x00\x00'
p1271
tp1272
Rp1273
sg34
g41
sbasg21
g42
sg23
(lp1274
g44
ag45
asg34
S'(test_data["Occupation"]<=16.5)'
p1275
sba(i__main__
Decision_Tree
p1276
(dp1277
g2
(lp1278
(i__main__
Decision_Tree
p1279
(dp1280
g21
g22
sg23
g24
(g28
S'\x05\x00\x00\x00\x00\x00\x00\x00'
p1281
tp1282
Rp1283
sg34
g35
sba(i__main__
Decision_Tree
p1284
(dp1285
g21
g22
sg23
g24
(g28
S'\x05\x00\x00\x00\x00\x00\x00\x00'
p1286
tp1287
Rp1288
sg34
g41
sbasg21
g42
sg23
(lp1289
g44
ag45
asg34
S'(test_data["Occupation"]>16.5'
p1290
sbasg21
g62
sg23
g24
(g65
S'\x00\x00\x00\x00\x00\x800@'
p1291
tp1292
Rp1293
sg34
S'(test_data["Age"]<=21.5)'
p1294
sba(i__main__
Decision_Tree
p1295
(dp1296
g2
(lp1297
(i__main__
Decision_Tree
p1298
(dp1299
g2
(lp1300
(i__main__
Decision_Tree
p1301
(dp1302
g21
g22
sg23
g24
(g28
S'\x04\x00\x00\x00\x00\x00\x00\x00'
p1303
tp1304
Rp1305
sg34
g35
sba(i__main__
Decision_Tree
p1306
(dp1307
g21
g22
sg23
g24
(g28
S'\x05\x00\x00\x00\x00\x00\x00\x00'
p1308
tp1309
Rp1310
sg34
g41
sbasg21
g42
sg23
(lp1311
g44
ag45
asg34
S'(test_data["Occupation"]<=6.5)'
p1312
sba(i__main__
Decision_Tree
p1313
(dp1314
g2
(lp1315
(i__main__
Decision_Tree
p1316
(dp1317
g21
g22
sg23
g24
(g28
S'\x04\x00\x00\x00\x00\x00\x00\x00'
p1318
tp1319
Rp1320
sg34
g35
sba(i__main__
Decision_Tree
p1321
(dp1322
g21
g22
sg23
g24
(g28
S'\x05\x00\x00\x00\x00\x00\x00\x00'
p1323
tp1324
Rp1325
sg34
g41
sbasg21
g42
sg23
(lp1326
g44
ag45
asg34
S'(test_data["Occupation"]>6.5'
p1327
sbasg21
g62
sg23
g24
(g65
S'\x00\x00\x00\x00\x00\x00\x1a@'
p1328
tp1329
Rp1330
sg34
S'(test_data["Age"]>21.5'
p1331
sbasg21
g109
sg23
g24
(g65
S'\x00\x00\x00\x00\x00\x805@'
p1332
tp1333
Rp1334
sg34
S'(test_data["Genre"]=="Sci-Fi")'
p1335
sba(i__main__
Decision_Tree
p1336
(dp1337
g2
(lp1338
(i__main__
Decision_Tree
p1339
(dp1340
g2
(lp1341
(i__main__
Decision_Tree
p1342
(dp1343
g2
(lp1344
(i__main__
Decision_Tree
p1345
(dp1346
g21
g22
sg23
g24
(g28
S'\x05\x00\x00\x00\x00\x00\x00\x00'
p1347
tp1348
Rp1349
sg34
g35
sba(i__main__
Decision_Tree
p1350
(dp1351
g21
g22
sg23
g24
(g28
S'\x04\x00\x00\x00\x00\x00\x00\x00'
p1352
tp1353
Rp1354
sg34
g41
sbasg21
g42
sg23
(lp1355
g44
ag45
asg34
S'(test_data["Occupation"]<=5.5)'
p1356
sba(i__main__
Decision_Tree
p1357
(dp1358
g2
(lp1359
(i__main__
Decision_Tree
p1360
(dp1361
g21
g22
sg23
g24
(g28
S'\x05\x00\x00\x00\x00\x00\x00\x00'
p1362
tp1363
Rp1364
sg34
g35
sba(i__main__
Decision_Tree
p1365
(dp1366
g21
g22
sg23
g24
(g28
S'\x05\x00\x00\x00\x00\x00\x00\x00'
p1367
tp1368
Rp1369
sg34
g41
sbasg21
g42
sg23
(lp1370
g44
ag45
asg34
S'(test_data["Occupation"]>5.5'
p1371
sbasg21
g62
sg23
g24
(g65
S'\x00\x00\x00\x00\x00\x00\x16@'
p1372
tp1373
Rp1374
sg34
S'(test_data["Age"]<=21.5)'
p1375
sba(i__main__
Decision_Tree
p1376
(dp1377
g2
(lp1378
(i__main__
Decision_Tree
p1379
(dp1380
g2
(lp1381
(i__main__
Decision_Tree
p1382
(dp1383
g21
g22
sg23
g24
(g28
S'\x04\x00\x00\x00\x00\x00\x00\x00'
p1384
tp1385
Rp1386
sg34
g35
sba(i__main__
Decision_Tree
p1387
(dp1388
g21
g22
sg23
g24
(g28
S'\x05\x00\x00\x00\x00\x00\x00\x00'
p1389
tp1390
Rp1391
sg34
g41
sbasg21
g42
sg23
(lp1392
g44
ag45
asg34
S'(test_data["Occupation"]<=19.5)'
p1393
sba(i__main__
Decision_Tree
p1394
(dp1395
g2
(lp1396
(i__main__
Decision_Tree
p1397
(dp1398
g21
g22
sg23
g24
(g28
S'\x05\x00\x00\x00\x00\x00\x00\x00'
p1399
tp1400
Rp1401
sg34
g35
sba(i__main__
Decision_Tree
p1402
(dp1403
g21
g22
sg23
g24
(g28
S'\x04\x00\x00\x00\x00\x00\x00\x00'
p1404
tp1405
Rp1406
sg34
g41
sbasg21
g42
sg23
(lp1407
g44
ag45
asg34
S'(test_data["Occupation"]>19.5'
p1408
sbasg21
g62
sg23
g24
(g65
S'\x00\x00\x00\x00\x00\x803@'
p1409
tp1410
Rp1411
sg34
S'(test_data["Age"]>21.5'
p1412
sbasg21
g109
sg23
g24
(g65
S'\x00\x00\x00\x00\x00\x805@'
p1413
tp1414
Rp1415
sg34
S'(test_data["Genre"]=="Thriller")'
p1416
sba(i__main__
Decision_Tree
p1417
(dp1418
g2
(lp1419
(i__main__
Decision_Tree
p1420
(dp1421
g2
(lp1422
(i__main__
Decision_Tree
p1423
(dp1424
g2
(lp1425
(i__main__
Decision_Tree
p1426
(dp1427
g21
g22
sg23
g24
(g28
S'\x05\x00\x00\x00\x00\x00\x00\x00'
p1428
tp1429
Rp1430
sg34
g35
sba(i__main__
Decision_Tree
p1431
(dp1432
g21
g22
sg23
g24
(g28
S'\x05\x00\x00\x00\x00\x00\x00\x00'
p1433
tp1434
Rp1435
sg34
g41
sbasg21
g42
sg23
(lp1436
g44
ag45
asg34
S'(test_data["Occupation"]<=5.5)'
p1437
sba(i__main__
Decision_Tree
p1438
(dp1439
g2
(lp1440
(i__main__
Decision_Tree
p1441
(dp1442
g21
g22
sg23
g24
(g28
S'\x05\x00\x00\x00\x00\x00\x00\x00'
p1443
tp1444
Rp1445
sg34
g35
sba(i__main__
Decision_Tree
p1446
(dp1447
g21
g22
sg23
g24
(g28
S'\x05\x00\x00\x00\x00\x00\x00\x00'
p1448
tp1449
Rp1450
sg34
g41
sbasg21
g42
sg23
(lp1451
g44
ag45
asg34
S'(test_data["Occupation"]>5.5'
p1452
sbasg21
g62
sg23
g24
(g65
S'\x00\x00\x00\x00\x00\x00\x16@'
p1453
tp1454
Rp1455
sg34
S'(test_data["Age"]<=21.5)'
p1456
sba(i__main__
Decision_Tree
p1457
(dp1458
g2
(lp1459
(i__main__
Decision_Tree
p1460
(dp1461
g2
(lp1462
(i__main__
Decision_Tree
p1463
(dp1464
g21
g22
sg23
g24
(g28
S'\x05\x00\x00\x00\x00\x00\x00\x00'
p1465
tp1466
Rp1467
sg34
g35
sba(i__main__
Decision_Tree
p1468
(dp1469
g21
g22
sg23
g24
(g28
S'\x05\x00\x00\x00\x00\x00\x00\x00'
p1470
tp1471
Rp1472
sg34
g41
sbasg21
g42
sg23
(lp1473
g44
ag45
asg34
S'(test_data["Occupation"]<=8.5)'
p1474
sba(i__main__
Decision_Tree
p1475
(dp1476
g2
(lp1477
(i__main__
Decision_Tree
p1478
(dp1479
g21
g22
sg23
g24
(g28
S'\x05\x00\x00\x00\x00\x00\x00\x00'
p1480
tp1481
Rp1482
sg34
g35
sba(i__main__
Decision_Tree
p1483
(dp1484
g21
g22
sg23
g24
(g28
S'\x05\x00\x00\x00\x00\x00\x00\x00'
p1485
tp1486
Rp1487
sg34
g41
sbasg21
g42
sg23
(lp1488
g44
ag45
asg34
S'(test_data["Occupation"]>8.5'
p1489
sbasg21
g62
sg23
g24
(g65
S'\x00\x00\x00\x00\x00\x00!@'
p1490
tp1491
Rp1492
sg34
S'(test_data["Age"]>21.5'
p1493
sbasg21
g109
sg23
g24
(g65
S'\x00\x00\x00\x00\x00\x805@'
p1494
tp1495
Rp1496
sg34
S'(test_data["Genre"]=="War")'
p1497
sba(i__main__
Decision_Tree
p1498
(dp1499
g2
(lp1500
(i__main__
Decision_Tree
p1501
(dp1502
g2
(lp1503
(i__main__
Decision_Tree
p1504
(dp1505
g2
(lp1506
(i__main__
Decision_Tree
p1507
(dp1508
g21
g22
sg23
g24
(g28
S'\x05\x00\x00\x00\x00\x00\x00\x00'
p1509
tp1510
Rp1511
sg34
g35
sba(i__main__
Decision_Tree
p1512
(dp1513
g21
g22
sg23
g24
(g28
S'\x04\x00\x00\x00\x00\x00\x00\x00'
p1514
tp1515
Rp1516
sg34
g41
sbasg21
g42
sg23
(lp1517
g44
ag45
asg34
S'(test_data["Occupation"]<=16.5)'
p1518
sba(i__main__
Decision_Tree
p1519
(dp1520
g2
(lp1521
(i__main__
Decision_Tree
p1522
(dp1523
g21
g22
sg23
g24
(g28
S'\x05\x00\x00\x00\x00\x00\x00\x00'
p1524
tp1525
Rp1526
sg34
g35
sba(i__main__
Decision_Tree
p1527
(dp1528
g21
g22
sg23
g24
(g28
S'\x03\x00\x00\x00\x00\x00\x00\x00'
p1529
tp1530
Rp1531
sg34
g41
sbasg21
g42
sg23
(lp1532
g44
ag45
asg34
S'(test_data["Occupation"]>16.5'
p1533
sbasg21
g62
sg23
g24
(g65
S'\x00\x00\x00\x00\x00\x800@'
p1534
tp1535
Rp1536
sg34
S'(test_data["Age"]<=21.5)'
p1537
sba(i__main__
Decision_Tree
p1538
(dp1539
g2
(lp1540
(i__main__
Decision_Tree
p1541
(dp1542
g2
(lp1543
(i__main__
Decision_Tree
p1544
(dp1545
g21
g22
sg23
g24
(g28
S'\x04\x00\x00\x00\x00\x00\x00\x00'
p1546
tp1547
Rp1548
sg34
g35
sba(i__main__
Decision_Tree
p1549
(dp1550
g21
g22
sg23
g24
(g28
S'\x04\x00\x00\x00\x00\x00\x00\x00'
p1551
tp1552
Rp1553
sg34
g41
sbasg21
g42
sg23
(lp1554
g44
ag45
asg34
S'(test_data["Occupation"]<=11.5)'
p1555
sba(i__main__
Decision_Tree
p1556
(dp1557
g2
(lp1558
(i__main__
Decision_Tree
p1559
(dp1560
g21
g22
sg23
g24
(g28
S'\x04\x00\x00\x00\x00\x00\x00\x00'
p1561
tp1562
Rp1563
sg34
g35
sba(i__main__
Decision_Tree
p1564
(dp1565
g21
g22
sg23
g24
(g28
S'\x04\x00\x00\x00\x00\x00\x00\x00'
p1566
tp1567
Rp1568
sg34
g41
sbasg21
g42
sg23
(lp1569
g44
ag45
asg34
S'(test_data["Occupation"]>11.5'
p1570
sbasg21
g62
sg23
g24
(g65
S"\x00\x00\x00\x00\x00\x00'@"
p1571
tp1572
Rp1573
sg34
S'(test_data["Age"]>21.5'
p1574
sbasg21
g109
sg23
g24
(g65
S'\x00\x00\x00\x00\x00\x805@'
p1575
tp1576
Rp1577
sg34
S'(test_data["Genre"]=="Western")'
p1578
sbasg21
S'Genre'
p1579
sg23
cnumpy.core.multiarray
_reconstruct
p1580
(cnumpy
ndarray
p1581
(I0
tp1582
S'b'
p1583
tp1584
Rp1585
(I1
(I18
tp1586
g25
(S'S11'
p1587
I0
I1
tp1588
Rp1589
(I3
S'|'
p1590
NNNI11
I1
I0
tp1591
bI00
S"Action\x00\x00\x00\x00\x00Adventure\x00\x00Animation\x00\x00Children's\x00Comedy\x00\x00\x00\x00\x00Crime\x00\x00\x00\x00\x00\x00DocumentaryDrama\x00\x00\x00\x00\x00\x00Fantasy\x00\x00\x00\x00Film-Noir\x00\x00Horror\x00\x00\x00\x00\x00Musical\x00\x00\x00\x00Mystery\x00\x00\x00\x00Romance\x00\x00\x00\x00Sci-Fi\x00\x00\x00\x00\x00Thriller\x00\x00\x00War\x00\x00\x00\x00\x00\x00\x00\x00Western\x00\x00\x00\x00"
p1592
tp1593
bsg34
S'(test_data["Year"]<=1977.5)'
p1594
sba(i__main__
Decision_Tree
p1595
(dp1596
g2
(lp1597
(i__main__
Decision_Tree
p1598
(dp1599
g2
(lp1600
(i__main__
Decision_Tree
p1601
(dp1602
g2
(lp1603
(i__main__
Decision_Tree
p1604
(dp1605
g2
(lp1606
(i__main__
Decision_Tree
p1607
(dp1608
g21
g22
sg23
g24
(g28
S'\x04\x00\x00\x00\x00\x00\x00\x00'
p1609
tp1610
Rp1611
sg34
g35
sba(i__main__
Decision_Tree
p1612
(dp1613
g21
g22
sg23
g24
(g28
S'\x04\x00\x00\x00\x00\x00\x00\x00'
p1614
tp1615
Rp1616
sg34
g41
sbasg21
g42
sg23
(lp1617
g44
ag45
asg34
S'(test_data["Occupation"]<=18.5)'
p1618
sba(i__main__
Decision_Tree
p1619
(dp1620
g2
(lp1621
(i__main__
Decision_Tree
p1622
(dp1623
g21
g22
sg23
g24
(g28
S'\x03\x00\x00\x00\x00\x00\x00\x00'
p1624
tp1625
Rp1626
sg34
g35
sba(i__main__
Decision_Tree
p1627
(dp1628
g21
g22
sg23
g24
(g28
S'\x03\x00\x00\x00\x00\x00\x00\x00'
p1629
tp1630
Rp1631
sg34
g41
sbasg21
g42
sg23
(lp1632
g44
ag45
asg34
S'(test_data["Occupation"]>18.5'
p1633
sbasg21
g62
sg23
g24
(g65
S'\x00\x00\x00\x00\x00\x802@'
p1634
tp1635
Rp1636
sg34
S'(test_data["Age"]<=30.0)'
p1637
sba(i__main__
Decision_Tree
p1638
(dp1639
g2
(lp1640
(i__main__
Decision_Tree
p1641
(dp1642
g2
(lp1643
(i__main__
Decision_Tree
p1644
(dp1645
g21
g22
sg23
g24
(g28
S'\x04\x00\x00\x00\x00\x00\x00\x00'
p1646
tp1647
Rp1648
sg34
S'(test_data["Occupation"]<=1.5)'
p1649
sba(i__main__
Decision_Tree
p1650
(dp1651
g21
g22
sg23
g24
(g28
S'\x04\x00\x00\x00\x00\x00\x00\x00'
p1652
tp1653
Rp1654
sg34
S'(test_data["Occupation"]>1.5'
p1655
sbasg21
g62
sg23
g24
(g65
S'\x00\x00\x00\x00\x00\x00\xf8?'
p1656
tp1657
Rp1658
sg34
g35
sba(i__main__
Decision_Tree
p1659
(dp1660
g2
(lp1661
(i__main__
Decision_Tree
p1662
(dp1663
g21
g22
sg23
g24
(g28
S'\x04\x00\x00\x00\x00\x00\x00\x00'
p1664
tp1665
Rp1666
sg34
S'(test_data["Occupation"]<=3.5)'
p1667
sba(i__main__
Decision_Tree
p1668
(dp1669
g21
g22
sg23
g24
(g28
S'\x04\x00\x00\x00\x00\x00\x00\x00'
p1670
tp1671
Rp1672
sg34
S'(test_data["Occupation"]>3.5'
p1673
sbasg21
g62
sg23
g24
(g65
S'\x00\x00\x00\x00\x00\x00\x0c@'
p1674
tp1675
Rp1676
sg34
g41
sbasg21
g42
sg23
(lp1677
g44
ag45
asg34
S'(test_data["Age"]>30.0'
p1678
sbasg21
g109
sg23
g24
(g65
S'\x00\x00\x00\x00\x00\x00>@'
p1679
tp1680
Rp1681
sg34
S'(test_data["Genre"]=="Action")'
p1682
sba(i__main__
Decision_Tree
p1683
(dp1684
g2
(lp1685
(i__main__
Decision_Tree
p1686
(dp1687
g2
(lp1688
(i__main__
Decision_Tree
p1689
(dp1690
g2
(lp1691
(i__main__
Decision_Tree
p1692
(dp1693
g21
g22
sg23
g24
(g28
S'\x04\x00\x00\x00\x00\x00\x00\x00'
p1694
tp1695
Rp1696
sg34
g35
sba(i__main__
Decision_Tree
p1697
(dp1698
g21
g22
sg23
g24
(g28
S'\x04\x00\x00\x00\x00\x00\x00\x00'
p1699
tp1700
Rp1701
sg34
g41
sbasg21
g42
sg23
(lp1702
g44
ag45
asg34
S'(test_data["Occupation"]<=18.5)'
p1703
sba(i__main__
Decision_Tree
p1704
(dp1705
g2
(lp1706
(i__main__
Decision_Tree
p1707
(dp1708
g21
g22
sg23
g24
(g28
S'\x03\x00\x00\x00\x00\x00\x00\x00'
p1709
tp1710
Rp1711
sg34
g35
sba(i__main__
Decision_Tree
p1712
(dp1713
g21
g22
sg23
g24
(g28
S'\x04\x00\x00\x00\x00\x00\x00\x00'
p1714
tp1715
Rp1716
sg34
g41
sbasg21
g42
sg23
(lp1717
g44
ag45
asg34
S'(test_data["Occupation"]>18.5'
p1718
sbasg21
g62
sg23
g24
(g65
S'\x00\x00\x00\x00\x00\x802@'
p1719
tp1720
Rp1721
sg34
S'(test_data["Age"]<=30.0)'
p1722
sba(i__main__
Decision_Tree
p1723
(dp1724
g2
(lp1725
(i__main__
Decision_Tree
p1726
(dp1727
g2
(lp1728
(i__main__
Decision_Tree
p1729
(dp1730
g21
g22
sg23
g24
(g28
S'\x04\x00\x00\x00\x00\x00\x00\x00'
p1731
tp1732
Rp1733
sg34
g35
sba(i__main__
Decision_Tree
p1734
(dp1735
g21
g22
sg23
g24
(g28
S'\x04\x00\x00\x00\x00\x00\x00\x00'
p1736
tp1737
Rp1738
sg34
g41
sbasg21
g42
sg23
(lp1739
g44
ag45
asg34
S'(test_data["Occupation"]<=17.5)'
p1740
sba(i__main__
Decision_Tree
p1741
(dp1742
g2
(lp1743
(i__main__
Decision_Tree
p1744
(dp1745
g21
g22
sg23
g24
(g28
S'\x04\x00\x00\x00\x00\x00\x00\x00'
p1746
tp1747
Rp1748
sg34
g35
sba(i__main__
Decision_Tree
p1749
(dp1750
g21
g22
sg23
g24
(g28
S'\x04\x00\x00\x00\x00\x00\x00\x00'
p1751
tp1752
Rp1753
sg34
g41
sbasg21
g42
sg23
(lp1754
g44
ag45
asg34
S'(test_data["Occupation"]>17.5'
p1755
sbasg21
g62
sg23
g24
(g65
S'\x00\x00\x00\x00\x00\x801@'
p1756
tp1757
Rp1758
sg34
S'(test_data["Age"]>30.0'
p1759
sbasg21
g109
sg23
g24
(g65
S'\x00\x00\x00\x00\x00\x00>@'
p1760
tp1761
Rp1762
sg34
S'(test_data["Genre"]=="Adventure")'
p1763
sba(i__main__
Decision_Tree
p1764
(dp1765
g2
(lp1766
(i__main__
Decision_Tree
p1767
(dp1768
g2
(lp1769
(i__main__
Decision_Tree
p1770
(dp1771
g2
(lp1772
(i__main__
Decision_Tree
p1773
(dp1774
g21
g22
sg23
g24
(g28
S'\x04\x00\x00\x00\x00\x00\x00\x00'
p1775
tp1776
Rp1777
sg34
S'(test_data["Occupation"]<=3.0)'
p1778
sba(i__main__
Decision_Tree
p1779
(dp1780
g21
g22
sg23
g24
(g28
S'\x04\x00\x00\x00\x00\x00\x00\x00'
p1781
tp1782
Rp1783
sg34
S'(test_data["Occupation"]>3.0'
p1784
sbasg21
g62
sg23
g24
(g65
S'\x00\x00\x00\x00\x00\x00\x08@'
p1785
tp1786
Rp1787
sg34
S'(test_data["Age"]<=9.5)'
p1788
sba(i__main__
Decision_Tree
p1789
(dp1790
g2
(lp1791
(i__main__
Decision_Tree
p1792
(dp1793
g21
g22
sg23
g24
(g28
S'\x04\x00\x00\x00\x00\x00\x00\x00'
p1794
tp1795
Rp1796
sg34
S'(test_data["Occupation"]<=1.5)'
p1797
sba(i__main__
Decision_Tree
p1798
(dp1799
g21
g22
sg23
g24
(g28
S'\x04\x00\x00\x00\x00\x00\x00\x00'
p1800
tp1801
Rp1802
sg34
S'(test_data["Occupation"]>1.5'
p1803
sbasg21
g62
sg23
g24
(g65
S'\x00\x00\x00\x00\x00\x00\xf8?'
p1804
tp1805
Rp1806
sg34
S'(test_data["Age"]>9.5'
p1807
sbasg21
g109
sg23
g24
(g65
S'\x00\x00\x00\x00\x00\x00#@'
p1808
tp1809
Rp1810
sg34
g35
sba(i__main__
Decision_Tree
p1811
(dp1812
g2
(lp1813
(i__main__
Decision_Tree
p1814
(dp1815
g2
(lp1816
(i__main__
Decision_Tree
p1817
(dp1818
g21
g22
sg23
g24
(g28
S'\x04\x00\x00\x00\x00\x00\x00\x00'
p1819
tp1820
Rp1821
sg34
S'(test_data["Occupation"]<=8.0)'
p1822
sba(i__main__
Decision_Tree
p1823
(dp1824
g21
g22
sg23
g24
(g28
S'\x04\x00\x00\x00\x00\x00\x00\x00'
p1825
tp1826
Rp1827
sg34
S'(test_data["Occupation"]>8.0'
p1828
sbasg21
g62
sg23
g24
(g65
S'\x00\x00\x00\x00\x00\x00 @'
p1829
tp1830
Rp1831
sg34
S'(test_data["Age"]<=21.5)'
p1832
sba(i__main__
Decision_Tree
p1833
(dp1834
g2
(lp1835
(i__main__
Decision_Tree
p1836
(dp1837
g21
g22
sg23
g24
(g28
S'\x04\x00\x00\x00\x00\x00\x00\x00'
p1838
tp1839
Rp1840
sg34
S'(test_data["Occupation"]<=13.5)'
p1841
sba(i__main__
Decision_Tree
p1842
(dp1843
g21
g22
sg23
g24
(g28
S'\x04\x00\x00\x00\x00\x00\x00\x00'
p1844
tp1845
Rp1846
sg34
S'(test_data["Occupation"]>13.5'
p1847
sbasg21
g62
sg23
g24
(g65
S'\x00\x00\x00\x00\x00\x00+@'
p1848
tp1849
Rp1850
sg34
S'(test_data["Age"]>21.5'
p1851
sbasg21
g109
sg23
g24
(g65
S'\x00\x00\x00\x00\x00\x805@'
p1852
tp1853
Rp1854
sg34
g41
sbasg21
g42
sg23
(lp1855
g44
ag45
asg34
S'(test_data["Genre"]=="Animation")'
p1856
sba(i__main__
Decision_Tree
p1857
(dp1858
g2
(lp1859
(i__main__
Decision_Tree
p1860
(dp1861
g2
(lp1862
(i__main__
Decision_Tree
p1863
(dp1864
g2
(lp1865
(i__main__
Decision_Tree
p1866
(dp1867
g21
g22
sg23
g24
(g28
S'\x04\x00\x00\x00\x00\x00\x00\x00'
p1868
tp1869
Rp1870
sg34
S'(test_data["Occupation"]<=18.5)'
p1871
sba(i__main__
Decision_Tree
p1872
(dp1873
g21
g22
sg23
g24
(g28
S'\x04\x00\x00\x00\x00\x00\x00\x00'
p1874
tp1875
Rp1876
sg34
S'(test_data["Occupation"]>18.5'
p1877
sbasg21
g62
sg23
g24
(g65
S'\x00\x00\x00\x00\x00\x802@'
p1878
tp1879
Rp1880
sg34
S'(test_data["Age"]<=30.0)'
p1881
sba(i__main__
Decision_Tree
p1882
(dp1883
g2
(lp1884
(i__main__
Decision_Tree
p1885
(dp1886
g21
g22
sg23
g24
(g28
S'\x04\x00\x00\x00\x00\x00\x00\x00'
p1887
tp1888
Rp1889
sg34
S'(test_data["Occupation"]<=10.5)'
p1890
sba(i__main__
Decision_Tree
p1891
(dp1892
g21
g22
sg23
g24
(g28
S'\x04\x00\x00\x00\x00\x00\x00\x00'
p1893
tp1894
Rp1895
sg34
S'(test_data["Occupation"]>10.5'
p1896
sbasg21
g62
sg23
g24
(g65
S'\x00\x00\x00\x00\x00\x00%@'
p1897
tp1898
Rp1899
sg34
S'(test_data["Age"]>30.0'
p1900
sbasg21
g109
sg23
g24
(g65
S'\x00\x00\x00\x00\x00\x00>@'
p1901
tp1902
Rp1903
sg34
g35
sba(i__main__
Decision_Tree
p1904
(dp1905
g2
(lp1906
(i__main__
Decision_Tree
p1907
(dp1908
g2
(lp1909
(i__main__
Decision_Tree
p1910
(dp1911
g21
g22
sg23
g24
(g28
S'\x04\x00\x00\x00\x00\x00\x00\x00'
p1912
tp1913
Rp1914
sg34
S'(test_data["Occupation"]<=19.5)'
p1915
sba(i__main__
Decision_Tree
p1916
(dp1917
g21
g22
sg23
g24
(g28
S'\x01\x00\x00\x00\x00\x00\x00\x00'
p1918
tp1919
Rp1920
sg34
S'(test_data["Occupation"]>19.5'
p1921
sbasg21
g62
sg23
g24
(g65
S'\x00\x00\x00\x00\x00\x803@'
p1922
tp1923
Rp1924
sg34
S'(test_data["Age"]<=21.5)'
p1925
sba(i__main__
Decision_Tree
p1926
(dp1927
g2
(lp1928
(i__main__
Decision_Tree
p1929
(dp1930
g21
g22
sg23
g24
(g28
S'\x04\x00\x00\x00\x00\x00\x00\x00'
p1931
tp1932
Rp1933
sg34
S'(test_data["Occupation"]<=3.5)'
p1934
sba(i__main__
Decision_Tree
p1935
(dp1936
g21
g22
sg23
g24
(g28
S'\x04\x00\x00\x00\x00\x00\x00\x00'
p1937
tp1938
Rp1939
sg34
S'(test_data["Occupation"]>3.5'
p1940
sbasg21
g62
sg23
g24
(g65
S'\x00\x00\x00\x00\x00\x00\x0c@'
p1941
tp1942
Rp1943
sg34
S'(test_data["Age"]>21.5'
p1944
sbasg21
g109
sg23
g24
(g65
S'\x00\x00\x00\x00\x00\x805@'
p1945
tp1946
Rp1947
sg34
g41
sbasg21
g42
sg23
(lp1948
g44
ag45
asg34
S'(test_data["Genre"]=="Children\'s")'
p1949
sba(i__main__
Decision_Tree
p1950
(dp1951
g2
(lp1952
(i__main__
Decision_Tree
p1953
(dp1954
g2
(lp1955
(i__main__
Decision_Tree
p1956
(dp1957
g2
(lp1958
(i__main__
Decision_Tree
p1959
(dp1960
g21
g22
sg23
g24
(g28
S'\x04\x00\x00\x00\x00\x00\x00\x00'
p1961
tp1962
Rp1963
sg34
S'(test_data["Age"]<=21.5)'
p1964
sba(i__main__
Decision_Tree
p1965
(dp1966
g21
g22
sg23
g24
(g28
S'\x04\x00\x00\x00\x00\x00\x00\x00'
p1967
tp1968
Rp1969
sg34
S'(test_data["Age"]>21.5'
p1970
sbasg21
g109
sg23
g24
(g65
S'\x00\x00\x00\x00\x00\x805@'
p1971
tp1972
Rp1973
sg34
S'(test_data["Occupation"]<=18.5)'
p1974
sba(i__main__
Decision_Tree
p1975
(dp1976
g2
(lp1977
(i__main__
Decision_Tree
p1978
(dp1979
g21
g22
sg23
g24
(g28
S'\x04\x00\x00\x00\x00\x00\x00\x00'
p1980
tp1981
Rp1982
sg34
S'(test_data["Age"]<=47.5)'
p1983
sba(i__main__
Decision_Tree
p1984
(dp1985
g21
g22
sg23
g24
(g28
S'\x04\x00\x00\x00\x00\x00\x00\x00'
p1986
tp1987
Rp1988
sg34
S'(test_data["Age"]>47.5'
p1989
sbasg21
g109
sg23
g24
(g65
S'\x00\x00\x00\x00\x00\xc0G@'
p1990
tp1991
Rp1992
sg34
S'(test_data["Occupation"]>18.5'
p1993
sbasg21
g62
sg23
g24
(g65
S'\x00\x00\x00\x00\x00\x802@'
p1994
tp1995
Rp1996
sg34
g35
sba(i__main__
Decision_Tree
p1997
(dp1998
g2
(lp1999
(i__main__
Decision_Tree
p2000
(dp2001
g2
(lp2002
(i__main__
Decision_Tree
p2003
(dp2004
g21
g22
sg23
g24
(g28
S'\x04\x00\x00\x00\x00\x00\x00\x00'
p2005
tp2006
Rp2007
sg34
S'(test_data["Occupation"]<=19.5)'
p2008
sba(i__main__
Decision_Tree
p2009
(dp2010
g21
g22
sg23
g24
(g28
S'\x03\x00\x00\x00\x00\x00\x00\x00'
p2011
tp2012
Rp2013
sg34
S'(test_data["Occupation"]>19.5'
p2014
sbasg21
g62
sg23
g24
(g65
S'\x00\x00\x00\x00\x00\x803@'
p2015
tp2016
Rp2017
sg34
S'(test_data["Age"]<=21.5)'
p2018
sba(i__main__
Decision_Tree
p2019
(dp2020
g2
(lp2021
(i__main__
Decision_Tree
p2022
(dp2023
g21
g22
sg23
g24
(g28
S'\x04\x00\x00\x00\x00\x00\x00\x00'
p2024
tp2025
Rp2026
sg34
S'(test_data["Occupation"]<=0.5)'
p2027
sba(i__main__
Decision_Tree
p2028
(dp2029
g21
g22
sg23
g24
(g28
S'\x04\x00\x00\x00\x00\x00\x00\x00'
p2030
tp2031
Rp2032
sg34
S'(test_data["Occupation"]>0.5'
p2033
sbasg21
g62
sg23
g24
(g65
S'\x00\x00\x00\x00\x00\x00\xe0?'
p2034
tp2035
Rp2036
sg34
S'(test_data["Age"]>21.5'
p2037
sbasg21
g109
sg23
g24
(g65
S'\x00\x00\x00\x00\x00\x805@'
p2038
tp2039
Rp2040
sg34
g41
sbasg21
g42
sg23
(lp2041
g44
ag45
asg34
S'(test_data["Genre"]=="Comedy")'
p2042
sba(i__main__
Decision_Tree
p2043
(dp2044
g2
(lp2045
(i__main__
Decision_Tree
p2046
(dp2047
g2
(lp2048
(i__main__
Decision_Tree
p2049
(dp2050
g2
(lp2051
(i__main__
Decision_Tree
p2052
(dp2053
g21
g22
sg23
g24
(g28
S'\x04\x00\x00\x00\x00\x00\x00\x00'
p2054
tp2055
Rp2056
sg34
S'(test_data["Occupation"]<=1.5)'
p2057
sba(i__main__
Decision_Tree
p2058
(dp2059
g21
g22
sg23
g24
(g28
S'\x04\x00\x00\x00\x00\x00\x00\x00'
p2060
tp2061
Rp2062
sg34
S'(test_data["Occupation"]>1.5'
p2063
sbasg21
g62
sg23
g24
(g65
S'\x00\x00\x00\x00\x00\x00\xf8?'
p2064
tp2065
Rp2066
sg34
g35
sba(i__main__
Decision_Tree
p2067
(dp2068
g2
(lp2069
(i__main__
Decision_Tree
p2070
(dp2071
g21
g22
sg23
g24
(g28
S'\x04\x00\x00\x00\x00\x00\x00\x00'
p2072
tp2073
Rp2074
sg34
S'(test_data["Occupation"]<=15.5)'
p2075
sba(i__main__
Decision_Tree
p2076
(dp2077
g21
g22
sg23
g24
(g28
S'\x04\x00\x00\x00\x00\x00\x00\x00'
p2078
tp2079
Rp2080
sg34
S'(test_data["Occupation"]>15.5'
p2081
sbasg21
g62
sg23
g24
(g65
S'\x00\x00\x00\x00\x00\x00/@'
p2082
tp2083
Rp2084
sg34
g41
sbasg21
g42
sg23
(lp2085
g44
ag45
asg34
S'(test_data["Age"]<=21.5)'
p2086
sba(i__main__
Decision_Tree
p2087
(dp2088
g2
(lp2089
(i__main__
Decision_Tree
p2090
(dp2091
g2
(lp2092
(i__main__
Decision_Tree
p2093
(dp2094
g21
g22
sg23
g24
(g28
S'\x04\x00\x00\x00\x00\x00\x00\x00'
p2095
tp2096
Rp2097
sg34
g35
sba(i__main__
Decision_Tree
p2098
(dp2099
g21
g22
sg23
g24
(g28
S'\x04\x00\x00\x00\x00\x00\x00\x00'
p2100
tp2101
Rp2102
sg34
g41
sbasg21
g42
sg23
(lp2103
g44
ag45
asg34
S'(test_data["Occupation"]<=4.5)'
p2104
sba(i__main__
Decision_Tree
p2105
(dp2106
g2
(lp2107
(i__main__
Decision_Tree
p2108
(dp2109
g21
g22
sg23
g24
(g28
S'\x04\x00\x00\x00\x00\x00\x00\x00'
p2110
tp2111
Rp2112
sg34
g35
sba(i__main__
Decision_Tree
p2113
(dp2114
g21
g22
sg23
g24
(g28
S'\x04\x00\x00\x00\x00\x00\x00\x00'
p2115
tp2116
Rp2117
sg34
g41
sbasg21
g42
sg23
(lp2118
g44
ag45
asg34
S'(test_data["Occupation"]>4.5'
p2119
sbasg21
g62
sg23
g24
(g65
S'\x00\x00\x00\x00\x00\x00\x12@'
p2120
tp2121
Rp2122
sg34
S'(test_data["Age"]>21.5'
p2123
sbasg21
g109
sg23
g24
(g65
S'\x00\x00\x00\x00\x00\x805@'
p2124
tp2125
Rp2126
sg34
S'(test_data["Genre"]=="Crime")'
p2127
sba(i__main__
Decision_Tree
p2128
(dp2129
g2
(lp2130
(i__main__
Decision_Tree
p2131
(dp2132
g2
(lp2133
(i__main__
Decision_Tree
p2134
(dp2135
g2
(lp2136
(i__main__
Decision_Tree
p2137
(dp2138
g21
g22
sg23
g24
(g28
S'\x04\x00\x00\x00\x00\x00\x00\x00'
p2139
tp2140
Rp2141
sg34
S'(test_data["Age"]<=47.5)'
p2142
sba(i__main__
Decision_Tree
p2143
(dp2144
g21
g22
sg23
g24
(g28
S'\x01\x00\x00\x00\x00\x00\x00\x00'
p2145
tp2146
Rp2147
sg34
S'(test_data["Age"]>47.5'
p2148
sbasg21
g109
sg23
g24
(g65
S'\x00\x00\x00\x00\x00\xc0G@'
p2149
tp2150
Rp2151
sg34
S'(test_data["Occupation"]<=0.5)'
p2152
sba(i__main__
Decision_Tree
p2153
(dp2154
g2
(lp2155
(i__main__
Decision_Tree
p2156
(dp2157
g21
g22
sg23
g24
(g28
S'\x05\x00\x00\x00\x00\x00\x00\x00'
p2158
tp2159
Rp2160
sg34
S'(test_data["Age"]<=40.0)'
p2161
sba(i__main__
Decision_Tree
p2162
(dp2163
g21
g22
sg23
g24
(g28
S'\x04\x00\x00\x00\x00\x00\x00\x00'
p2164
tp2165
Rp2166
sg34
S'(test_data["Age"]>40.0'
p2167
sbasg21
g109
sg23
g24
(g65
S'\x00\x00\x00\x00\x00\x00D@'
p2168
tp2169
Rp2170
sg34
S'(test_data["Occupation"]>0.5'
p2171
sbasg21
g62
sg23
g24
(g65
S'\x00\x00\x00\x00\x00\x00\xe0?'
p2172
tp2173
Rp2174
sg34
g35
sba(i__main__
Decision_Tree
p2175
(dp2176
g2
(lp2177
(i__main__
Decision_Tree
p2178
(dp2179
g2
(lp2180
(i__main__
Decision_Tree
p2181
(dp2182
g21
g22
sg23
g24
(g28
S'\x04\x00\x00\x00\x00\x00\x00\x00'
p2183
tp2184
Rp2185
sg34
S'(test_data["Age"]<=9.5)'
p2186
sba(i__main__
Decision_Tree
p2187
(dp2188
g21
g22
sg23
g24
(g28
S'\x04\x00\x00\x00\x00\x00\x00\x00'
p2189
tp2190
Rp2191
sg34
S'(test_data["Age"]>9.5'
p2192
sbasg21
g109
sg23
g24
(g65
S'\x00\x00\x00\x00\x00\x00#@'
p2193
tp2194
Rp2195
sg34
S'(test_data["Occupation"]<=19.5)'
p2196
sba(i__main__
Decision_Tree
p2197
(dp2198
g2
(lp2199
(i__main__
Decision_Tree
p2200
(dp2201
g21
g22
sg23
g24
(g28
S'\x04\x00\x00\x00\x00\x00\x00\x00'
p2202
tp2203
Rp2204
sg34
S'(test_data["Age"]<=30.0)'
p2205
sba(i__main__
Decision_Tree
p2206
(dp2207
g21
g22
sg23
g24
(g28
S'\x05\x00\x00\x00\x00\x00\x00\x00'
p2208
tp2209
Rp2210
sg34
S'(test_data["Age"]>30.0'
p2211
sbasg21
g109
sg23
g24
(g65
S'\x00\x00\x00\x00\x00\x00>@'
p2212
tp2213
Rp2214
sg34
S'(test_data["Occupation"]>19.5'
p2215
sbasg21
g62
sg23
g24
(g65
S'\x00\x00\x00\x00\x00\x803@'
p2216
tp2217
Rp2218
sg34
g41
sbasg21
g42
sg23
(lp2219
g44
ag45
asg34
S'(test_data["Genre"]=="Documentary")'
p2220
sba(i__main__
Decision_Tree
p2221
(dp2222
g2
(lp2223
(i__main__
Decision_Tree
p2224
(dp2225
g2
(lp2226
(i__main__
Decision_Tree
p2227
(dp2228
g2
(lp2229
(i__main__
Decision_Tree
p2230
(dp2231
g21
g22
sg23
g24
(g28
S'\x04\x00\x00\x00\x00\x00\x00\x00'
p2232
tp2233
Rp2234
sg34
g35
sba(i__main__
Decision_Tree
p2235
(dp2236
g21
g22
sg23
g24
(g28
S'\x04\x00\x00\x00\x00\x00\x00\x00'
p2237
tp2238
Rp2239
sg34
g41
sbasg21
g42
sg23
(lp2240
g44
ag45
asg34
S'(test_data["Occupation"]<=18.5)'
p2241
sba(i__main__
Decision_Tree
p2242
(dp2243
g2
(lp2244
(i__main__
Decision_Tree
p2245
(dp2246
g21
g22
sg23
g24
(g28
S'\x04\x00\x00\x00\x00\x00\x00\x00'
p2247
tp2248
Rp2249
sg34
g35
sba(i__main__
Decision_Tree
p2250
(dp2251
g21
g22
sg23
g24
(g28
S'\x04\x00\x00\x00\x00\x00\x00\x00'
p2252
tp2253
Rp2254
sg34
g41
sbasg21
g42
sg23
(lp2255
g44
ag45
asg34
S'(test_data["Occupation"]>18.5'
p2256
sbasg21
g62
sg23
g24
(g65
S'\x00\x00\x00\x00\x00\x802@'
p2257
tp2258
Rp2259
sg34
S'(test_data["Age"]<=30.0)'
p2260
sba(i__main__
Decision_Tree
p2261
(dp2262
g2
(lp2263
(i__main__
Decision_Tree
p2264
(dp2265
g2
(lp2266
(i__main__
Decision_Tree
p2267
(dp2268
g21
g22
sg23
g24
(g28
S'\x04\x00\x00\x00\x00\x00\x00\x00'
p2269
tp2270
Rp2271
sg34
S'(test_data["Occupation"]<=0.5)'
p2272
sba(i__main__
Decision_Tree
p2273
(dp2274
g21
g22
sg23
g24
(g28
S'\x04\x00\x00\x00\x00\x00\x00\x00'
p2275
tp2276
Rp2277
sg34
S'(test_data["Occupation"]>0.5'
p2278
sbasg21
g62
sg23
g24
(g65
S'\x00\x00\x00\x00\x00\x00\xe0?'
p2279
tp2280
Rp2281
sg34
g35
sba(i__main__
Decision_Tree
p2282
(dp2283
g2
(lp2284
(i__main__
Decision_Tree
p2285
(dp2286
g21
g22
sg23
g24
(g28
S'\x04\x00\x00\x00\x00\x00\x00\x00'
p2287
tp2288
Rp2289
sg34
S'(test_data["Occupation"]<=0.5)'
p2290
sba(i__main__
Decision_Tree
p2291
(dp2292
g21
g22
sg23
g24
(g28
S'\x04\x00\x00\x00\x00\x00\x00\x00'
p2293
tp2294
Rp2295
sg34
S'(test_data["Occupation"]>0.5'
p2296
sbasg21
g62
sg23
g24
(g65
S'\x00\x00\x00\x00\x00\x00\xe0?'
p2297
tp2298
Rp2299
sg34
g41
sbasg21
g42
sg23
(lp2300
g44
ag45
asg34
S'(test_data["Age"]>30.0'
p2301
sbasg21
g109
sg23
g24
(g65
S'\x00\x00\x00\x00\x00\x00>@'
p2302
tp2303
Rp2304
sg34
S'(test_data["Genre"]=="Drama")'
p2305
sba(i__main__
Decision_Tree
p2306
(dp2307
g2
(lp2308
(i__main__
Decision_Tree
p2309
(dp2310
g2
(lp2311
(i__main__
Decision_Tree
p2312
(dp2313
g2
(lp2314
(i__main__
Decision_Tree
p2315
(dp2316
g21
g22
sg23
g24
(g28
S'\x04\x00\x00\x00\x00\x00\x00\x00'
p2317
tp2318
Rp2319
sg34
g35
sba(i__main__
Decision_Tree
p2320
(dp2321
g21
g22
sg23
g24
(g28
S'\x03\x00\x00\x00\x00\x00\x00\x00'
p2322
tp2323
Rp2324
sg34
g41
sbasg21
g42
sg23
(lp2325
g44
ag45
asg34
S'(test_data["Occupation"]<=18.5)'
p2326
sba(i__main__
Decision_Tree
p2327
(dp2328
g2
(lp2329
(i__main__
Decision_Tree
p2330
(dp2331
g21
g22
sg23
g24
(g28
S'\x03\x00\x00\x00\x00\x00\x00\x00'
p2332
tp2333
Rp2334
sg34
g35
sba(i__main__
Decision_Tree
p2335
(dp2336
g21
g22
sg23
g24
(g28
S'\x03\x00\x00\x00\x00\x00\x00\x00'
p2337
tp2338
Rp2339
sg34
g41
sbasg21
g42
sg23
(lp2340
g44
ag45
asg34
S'(test_data["Occupation"]>18.5'
p2341
sbasg21
g62
sg23
g24
(g65
S'\x00\x00\x00\x00\x00\x802@'
p2342
tp2343
Rp2344
sg34
S'(test_data["Age"]<=21.5)'
p2345
sba(i__main__
Decision_Tree
p2346
(dp2347
g2
(lp2348
(i__main__
Decision_Tree
p2349
(dp2350
g2
(lp2351
(i__main__
Decision_Tree
p2352
(dp2353
g21
g22
sg23
g24
(g28
S'\x03\x00\x00\x00\x00\x00\x00\x00'
p2354
tp2355
Rp2356
sg34
S'(test_data["Occupation"]<=4.5)'
p2357
sba(i__main__
Decision_Tree
p2358
(dp2359
g21
g22
sg23
g24
(g28
S'\x04\x00\x00\x00\x00\x00\x00\x00'
p2360
tp2361
Rp2362
sg34
S'(test_data["Occupation"]>4.5'
p2363
sbasg21
g62
sg23
g24
(g65
S'\x00\x00\x00\x00\x00\x00\x12@'
p2364
tp2365
Rp2366
sg34
g35
sba(i__main__
Decision_Tree
p2367
(dp2368
g2
(lp2369
(i__main__
Decision_Tree
p2370
(dp2371
g21
g22
sg23
g24
(g28
S'\x04\x00\x00\x00\x00\x00\x00\x00'
p2372
tp2373
Rp2374
sg34
S'(test_data["Occupation"]<=4.5)'
p2375
sba(i__main__
Decision_Tree
p2376
(dp2377
g21
g22
sg23
g24
(g28
S'\x04\x00\x00\x00\x00\x00\x00\x00'
p2378
tp2379
Rp2380
sg34
S'(test_data["Occupation"]>4.5'
p2381
sbasg21
g62
sg23
g24
(g65
S'\x00\x00\x00\x00\x00\x00\x12@'
p2382
tp2383
Rp2384
sg34
g41
sbasg21
g42
sg23
(lp2385
g44
ag45
asg34
S'(test_data["Age"]>21.5'
p2386
sbasg21
g109
sg23
g24
(g65
S'\x00\x00\x00\x00\x00\x805@'
p2387
tp2388
Rp2389
sg34
S'(test_data["Genre"]=="Fantasy")'
p2390
sba(i__main__
Decision_Tree
p2391
(dp2392
g2
(lp2393
(i__main__
Decision_Tree
p2394
(dp2395
g2
(lp2396
(i__main__
Decision_Tree
p2397
(dp2398
g2
(lp2399
(i__main__
Decision_Tree
p2400
(dp2401
g21
g22
sg23
g24
(g28
S'\x04\x00\x00\x00\x00\x00\x00\x00'
p2402
tp2403
Rp2404
sg34
g35
sba(i__main__
Decision_Tree
p2405
(dp2406
g21
g22
sg23
g24
(g28
S'\x04\x00\x00\x00\x00\x00\x00\x00'
p2407
tp2408
Rp2409
sg34
g41
sbasg21
g42
sg23
(lp2410
g44
ag45
asg34
S'(test_data["Age"]<=30.0)'
p2411
sba(i__main__
Decision_Tree
p2412
(dp2413
g2
(lp2414
(i__main__
Decision_Tree
p2415
(dp2416
g21
g22
sg23
g24
(g28
S'\x04\x00\x00\x00\x00\x00\x00\x00'
p2417
tp2418
Rp2419
sg34
g35
sba(i__main__
Decision_Tree
p2420
(dp2421
g21
g22
sg23
g24
(g28
S'\x04\x00\x00\x00\x00\x00\x00\x00'
p2422
tp2423
Rp2424
sg34
g41
sbasg21
g42
sg23
(lp2425
g44
ag45
asg34
S'(test_data["Age"]>30.0'
p2426
sbasg21
g109
sg23
g24
(g65
S'\x00\x00\x00\x00\x00\x00>@'
p2427
tp2428
Rp2429
sg34
S'(test_data["Occupation"]<=9.5)'
p2430
sba(i__main__
Decision_Tree
p2431
(dp2432
g2
(lp2433
(i__main__
Decision_Tree
p2434
(dp2435
g2
(lp2436
(i__main__
Decision_Tree
p2437
(dp2438
g21
g22
sg23
g24
(g28
S'\x05\x00\x00\x00\x00\x00\x00\x00'
p2439
tp2440
Rp2441
sg34
g35
sba(i__main__
Decision_Tree
p2442
(dp2443
g21
g22
sg23
g24
(g28
S'\x05\x00\x00\x00\x00\x00\x00\x00'
p2444
tp2445
Rp2446
sg34
g41
sbasg21
g42
sg23
(lp2447
g44
ag45
asg34
S'(test_data["Age"]<=9.5)'
p2448
sba(i__main__
Decision_Tree
p2449
(dp2450
g2
(lp2451
(i__main__
Decision_Tree
p2452
(dp2453
g21
g22
sg23
g24
(g28
S'\x04\x00\x00\x00\x00\x00\x00\x00'
p2454
tp2455
Rp2456
sg34
g35
sba(i__main__
Decision_Tree
p2457
(dp2458
g21
g22
sg23
g24
(g28
S'\x04\x00\x00\x00\x00\x00\x00\x00'
p2459
tp2460
Rp2461
sg34
g41
sbasg21
g42
sg23
(lp2462
g44
ag45
asg34
S'(test_data["Age"]>9.5'
p2463
sbasg21
g109
sg23
g24
(g65
S'\x00\x00\x00\x00\x00\x00#@'
p2464
tp2465
Rp2466
sg34
S'(test_data["Occupation"]>9.5'
p2467
sbasg21
g62
sg23
g24
(g65
S'\x00\x00\x00\x00\x00\x00#@'
p2468
tp2469
Rp2470
sg34
S'(test_data["Genre"]=="Film-Noir")'
p2471
sba(i__main__
Decision_Tree
p2472
(dp2473
g2
(lp2474
(i__main__
Decision_Tree
p2475
(dp2476
g2
(lp2477
(i__main__
Decision_Tree
p2478
(dp2479
g2
(lp2480
(i__main__
Decision_Tree
p2481
(dp2482
g21
g22
sg23
g24
(g28
S'\x03\x00\x00\x00\x00\x00\x00\x00'
p2483
tp2484
Rp2485
sg34
g35
sba(i__main__
Decision_Tree
p2486
(dp2487
g21
g22
sg23
g24
(g28
S'\x03\x00\x00\x00\x00\x00\x00\x00'
p2488
tp2489
Rp2490
sg34
g41
sbasg21
g42
sg23
(lp2491
g44
ag45
asg34
S'(test_data["Occupation"]<=11.5)'
p2492
sba(i__main__
Decision_Tree
p2493
(dp2494
g2
(lp2495
(i__main__
Decision_Tree
p2496
(dp2497
g21
g22
sg23
g24
(g28
S'\x03\x00\x00\x00\x00\x00\x00\x00'
p2498
tp2499
Rp2500
sg34
g35
sba(i__main__
Decision_Tree
p2501
(dp2502
g21
g22
sg23
g24
(g28
S'\x03\x00\x00\x00\x00\x00\x00\x00'
p2503
tp2504
Rp2505
sg34
g41
sbasg21
g42
sg23
(lp2506
g44
ag45
asg34
S'(test_data["Occupation"]>11.5'
p2507
sbasg21
g62
sg23
g24
(g65
S"\x00\x00\x00\x00\x00\x00'@"
p2508
tp2509
Rp2510
sg34
S'(test_data["Age"]<=47.5)'
p2511
sba(i__main__
Decision_Tree
p2512
(dp2513
g2
(lp2514
(i__main__
Decision_Tree
p2515
(dp2516
g2
(lp2517
(i__main__
Decision_Tree
p2518
(dp2519
g21
g22
sg23
g24
(g28
S'\x01\x00\x00\x00\x00\x00\x00\x00'
p2520
tp2521
Rp2522
sg34
g35
sba(i__main__
Decision_Tree
p2523
(dp2524
g21
g22
sg23
g24
(g28
S'\x04\x00\x00\x00\x00\x00\x00\x00'
p2525
tp2526
Rp2527
sg34
g41
sbasg21
g42
sg23
(lp2528
g44
ag45
asg34
S'(test_data["Occupation"]<=1.5)'
p2529
sba(i__main__
Decision_Tree
p2530
(dp2531
g2
(lp2532
(i__main__
Decision_Tree
p2533
(dp2534
g21
g22
sg23
g24
(g28
S'\x04\x00\x00\x00\x00\x00\x00\x00'
p2535
tp2536
Rp2537
sg34
g35
sba(i__main__
Decision_Tree
p2538
(dp2539
g21
g22
sg23
g24
(g28
S'\x03\x00\x00\x00\x00\x00\x00\x00'
p2540
tp2541
Rp2542
sg34
g41
sbasg21
g42
sg23
(lp2543
g44
ag45
asg34
S'(test_data["Occupation"]>1.5'
p2544
sbasg21
g62
sg23
g24
(g65
S'\x00\x00\x00\x00\x00\x00\xf8?'
p2545
tp2546
Rp2547
sg34
S'(test_data["Age"]>47.5'
p2548
sbasg21
g109
sg23
g24
(g65
S'\x00\x00\x00\x00\x00\xc0G@'
p2549
tp2550
Rp2551
sg34
S'(test_data["Genre"]=="Horror")'
p2552
sba(i__main__
Decision_Tree
p2553
(dp2554
g2
(lp2555
(i__main__
Decision_Tree
p2556
(dp2557
g2
(lp2558
(i__main__
Decision_Tree
p2559
(dp2560
g2
(lp2561
(i__main__
Decision_Tree
p2562
(dp2563
g21
g22
sg23
g24
(g28
S'\x04\x00\x00\x00\x00\x00\x00\x00'
p2564
tp2565
Rp2566
sg34
S'(test_data["Occupation"]<=11.5)'
p2567
sba(i__main__
Decision_Tree
p2568
(dp2569
g21
g22
sg23
g24
(g28
S'\x04\x00\x00\x00\x00\x00\x00\x00'
p2570
tp2571
Rp2572
sg34
S'(test_data["Occupation"]>11.5'
p2573
sbasg21
g62
sg23
g24
(g65
S"\x00\x00\x00\x00\x00\x00'@"
p2574
tp2575
Rp2576
sg34
S'(test_data["Age"]<=30.0)'
p2577
sba(i__main__
Decision_Tree
p2578
(dp2579
g2
(lp2580
(i__main__
Decision_Tree
p2581
(dp2582
g21
g22
sg23
g24
(g28
S'\x04\x00\x00\x00\x00\x00\x00\x00'
p2583
tp2584
Rp2585
sg34
S'(test_data["Occupation"]<=7.5)'
p2586
sba(i__main__
Decision_Tree
p2587
(dp2588
g21
g22
sg23
g24
(g28
S'\x04\x00\x00\x00\x00\x00\x00\x00'
p2589
tp2590
Rp2591
sg34
S'(test_data["Occupation"]>7.5'
p2592
sbasg21
g62
sg23
g24
(g65
S'\x00\x00\x00\x00\x00\x00\x1e@'
p2593
tp2594
Rp2595
sg34
S'(test_data["Age"]>30.0'
p2596
sbasg21
g109
sg23
g24
(g65
S'\x00\x00\x00\x00\x00\x00>@'
p2597
tp2598
Rp2599
sg34
g35
sba(i__main__
Decision_Tree
p2600
(dp2601
g2
(lp2602
(i__main__
Decision_Tree
p2603
(dp2604
g2
(lp2605
(i__main__
Decision_Tree
p2606
(dp2607
g21
g22
sg23
g24
(g28
S'\x03\x00\x00\x00\x00\x00\x00\x00'
p2608
tp2609
Rp2610
sg34
S'(test_data["Occupation"]<=2.5)'
p2611
sba(i__main__
Decision_Tree
p2612
(dp2613
g21
g22
sg23
g24
(g28
S'\x04\x00\x00\x00\x00\x00\x00\x00'
p2614
tp2615
Rp2616
sg34
S'(test_data["Occupation"]>2.5'
p2617
sbasg21
g62
sg23
g24
(g65
S'\x00\x00\x00\x00\x00\x00\x04@'
p2618
tp2619
Rp2620
sg34
S'(test_data["Age"]<=21.5)'
p2621
sba(i__main__
Decision_Tree
p2622
(dp2623
g2
(lp2624
(i__main__
Decision_Tree
p2625
(dp2626
g21
g22
sg23
g24
(g28
S'\x04\x00\x00\x00\x00\x00\x00\x00'
p2627
tp2628
Rp2629
sg34
S'(test_data["Occupation"]<=3.5)'
p2630
sba(i__main__
Decision_Tree
p2631
(dp2632
g21
g22
sg23
g24
(g28
S'\x04\x00\x00\x00\x00\x00\x00\x00'
p2633
tp2634
Rp2635
sg34
S'(test_data["Occupation"]>3.5'
p2636
sbasg21
g62
sg23
g24
(g65
S'\x00\x00\x00\x00\x00\x00\x0c@'
p2637
tp2638
Rp2639
sg34
S'(test_data["Age"]>21.5'
p2640
sbasg21
g109
sg23
g24
(g65
S'\x00\x00\x00\x00\x00\x805@'
p2641
tp2642
Rp2643
sg34
g41
sbasg21
g42
sg23
(lp2644
g44
ag45
asg34
S'(test_data["Genre"]=="Musical")'
p2645
sba(i__main__
Decision_Tree
p2646
(dp2647
g2
(lp2648
(i__main__
Decision_Tree
p2649
(dp2650
g2
(lp2651
(i__main__
Decision_Tree
p2652
(dp2653
g2
(lp2654
(i__main__
Decision_Tree
p2655
(dp2656
g21
g22
sg23
g24
(g28
S'\x04\x00\x00\x00\x00\x00\x00\x00'
p2657
tp2658
Rp2659
sg34
g35
sba(i__main__
Decision_Tree
p2660
(dp2661
g21
g22
sg23
g24
(g28
S'\x04\x00\x00\x00\x00\x00\x00\x00'
p2662
tp2663
Rp2664
sg34
g41
sbasg21
g42
sg23
(lp2665
g44
ag45
asg34
S'(test_data["Occupation"]<=18.5)'
p2666
sba(i__main__
Decision_Tree
p2667
(dp2668
g2
(lp2669
(i__main__
Decision_Tree
p2670
(dp2671
g21
g22
sg23
g24
(g28
S'\x04\x00\x00\x00\x00\x00\x00\x00'
p2672
tp2673
Rp2674
sg34
g35
sba(i__main__
Decision_Tree
p2675
(dp2676
g21
g22
sg23
g24
(g28
S'\x01\x00\x00\x00\x00\x00\x00\x00'
p2677
tp2678
Rp2679
sg34
g41
sbasg21
g42
sg23
(lp2680
g44
ag45
asg34
S'(test_data["Occupation"]>18.5'
p2681
sbasg21
g62
sg23
g24
(g65
S'\x00\x00\x00\x00\x00\x802@'
p2682
tp2683
Rp2684
sg34
S'(test_data["Age"]<=21.5)'
p2685
sba(i__main__
Decision_Tree
p2686
(dp2687
g2
(lp2688
(i__main__
Decision_Tree
p2689
(dp2690
g2
(lp2691
(i__main__
Decision_Tree
p2692
(dp2693
g21
g22
sg23
g24
(g28
S'\x04\x00\x00\x00\x00\x00\x00\x00'
p2694
tp2695
Rp2696
sg34
g35
sba(i__main__
Decision_Tree
p2697
(dp2698
g21
g22
sg23
g24
(g28
S'\x04\x00\x00\x00\x00\x00\x00\x00'
p2699
tp2700
Rp2701
sg34
g41
sbasg21
g42
sg23
(lp2702
g44
ag45
asg34
S'(test_data["Occupation"]<=5.5)'
p2703
sba(i__main__
Decision_Tree
p2704
(dp2705
g2
(lp2706
(i__main__
Decision_Tree
p2707
(dp2708
g21
g22
sg23
g24
(g28
S'\x04\x00\x00\x00\x00\x00\x00\x00'
p2709
tp2710
Rp2711
sg34
g35
sba(i__main__
Decision_Tree
p2712
(dp2713
g21
g22
sg23
g24
(g28
S'\x04\x00\x00\x00\x00\x00\x00\x00'
p2714
tp2715
Rp2716
sg34
g41
sbasg21
g42
sg23
(lp2717
g44
ag45
asg34
S'(test_data["Occupation"]>5.5'
p2718
sbasg21
g62
sg23
g24
(g65
S'\x00\x00\x00\x00\x00\x00\x16@'
p2719
tp2720
Rp2721
sg34
S'(test_data["Age"]>21.5'
p2722
sbasg21
g109
sg23
g24
(g65
S'\x00\x00\x00\x00\x00\x805@'
p2723
tp2724
Rp2725
sg34
S'(test_data["Genre"]=="Mystery")'
p2726
sba(i__main__
Decision_Tree
p2727
(dp2728
g2
(lp2729
(i__main__
Decision_Tree
p2730
(dp2731
g2
(lp2732
(i__main__
Decision_Tree
p2733
(dp2734
g2
(lp2735
(i__main__
Decision_Tree
p2736
(dp2737
g21
g22
sg23
g24
(g28
S'\x04\x00\x00\x00\x00\x00\x00\x00'
p2738
tp2739
Rp2740
sg34
S'(test_data["Occupation"]<=18.5)'
p2741
sba(i__main__
Decision_Tree
p2742
(dp2743
g21
g22
sg23
g24
(g28
S'\x04\x00\x00\x00\x00\x00\x00\x00'
p2744
tp2745
Rp2746
sg34
S'(test_data["Occupation"]>18.5'
p2747
sbasg21
g62
sg23
g24
(g65
S'\x00\x00\x00\x00\x00\x802@'
p2748
tp2749
Rp2750
sg34
S'(test_data["Age"]<=30.0)'
p2751
sba(i__main__
Decision_Tree
p2752
(dp2753
g2
(lp2754
(i__main__
Decision_Tree
p2755
(dp2756
g21
g22
sg23
g24
(g28
S'\x04\x00\x00\x00\x00\x00\x00\x00'
p2757
tp2758
Rp2759
sg34
S'(test_data["Occupation"]<=17.5)'
p2760
sba(i__main__
Decision_Tree
p2761
(dp2762
g21
g22
sg23
g24
(g28
S'\x04\x00\x00\x00\x00\x00\x00\x00'
p2763
tp2764
Rp2765
sg34
S'(test_data["Occupation"]>17.5'
p2766
sbasg21
g62
sg23
g24
(g65
S'\x00\x00\x00\x00\x00\x801@'
p2767
tp2768
Rp2769
sg34
S'(test_data["Age"]>30.0'
p2770
sbasg21
g109
sg23
g24
(g65
S'\x00\x00\x00\x00\x00\x00>@'
p2771
tp2772
Rp2773
sg34
g35
sba(i__main__
Decision_Tree
p2774
(dp2775
g2
(lp2776
(i__main__
Decision_Tree
p2777
(dp2778
g2
(lp2779
(i__main__
Decision_Tree
p2780
(dp2781
g21
g22
sg23
g24
(g28
S'\x04\x00\x00\x00\x00\x00\x00\x00'
p2782
tp2783
Rp2784
sg34
S'(test_data["Occupation"]<=18.5)'
p2785
sba(i__main__
Decision_Tree
p2786
(dp2787
g21
g22
sg23
g24
(g28
S'\x03\x00\x00\x00\x00\x00\x00\x00'
p2788
tp2789
Rp2790
sg34
S'(test_data["Occupation"]>18.5'
p2791
sbasg21
g62
sg23
g24
(g65
S'\x00\x00\x00\x00\x00\x802@'
p2792
tp2793
Rp2794
sg34
S'(test_data["Age"]<=30.0)'
p2795
sba(i__main__
Decision_Tree
p2796
(dp2797
g2
(lp2798
(i__main__
Decision_Tree
p2799
(dp2800
g21
g22
sg23
g24
(g28
S'\x04\x00\x00\x00\x00\x00\x00\x00'
p2801
tp2802
Rp2803
sg34
S'(test_data["Occupation"]<=0.5)'
p2804
sba(i__main__
Decision_Tree
p2805
(dp2806
g21
g22
sg23
g24
(g28
S'\x04\x00\x00\x00\x00\x00\x00\x00'
p2807
tp2808
Rp2809
sg34
S'(test_data["Occupation"]>0.5'
p2810
sbasg21
g62
sg23
g24
(g65
S'\x00\x00\x00\x00\x00\x00\xe0?'
p2811
tp2812
Rp2813
sg34
S'(test_data["Age"]>30.0'
p2814
sbasg21
g109
sg23
g24
(g65
S'\x00\x00\x00\x00\x00\x00>@'
p2815
tp2816
Rp2817
sg34
g41
sbasg21
g42
sg23
(lp2818
g44
ag45
asg34
S'(test_data["Genre"]=="Romance")'
p2819
sba(i__main__
Decision_Tree
p2820
(dp2821
g2
(lp2822
(i__main__
Decision_Tree
p2823
(dp2824
g2
(lp2825
(i__main__
Decision_Tree
p2826
(dp2827
g2
(lp2828
(i__main__
Decision_Tree
p2829
(dp2830
g21
g22
sg23
g24
(g28
S'\x04\x00\x00\x00\x00\x00\x00\x00'
p2831
tp2832
Rp2833
sg34
g35
sba(i__main__
Decision_Tree
p2834
(dp2835
g21
g22
sg23
g24
(g28
S'\x04\x00\x00\x00\x00\x00\x00\x00'
p2836
tp2837
Rp2838
sg34
g41
sbasg21
g42
sg23
(lp2839
g44
ag45
asg34
S'(test_data["Occupation"]<=18.5)'
p2840
sba(i__main__
Decision_Tree
p2841
(dp2842
g2
(lp2843
(i__main__
Decision_Tree
p2844
(dp2845
g21
g22
sg23
g24
(g28
S'\x03\x00\x00\x00\x00\x00\x00\x00'
p2846
tp2847
Rp2848
sg34
g35
sba(i__main__
Decision_Tree
p2849
(dp2850
g21
g22
sg23
g24
(g28
S'\x04\x00\x00\x00\x00\x00\x00\x00'
p2851
tp2852
Rp2853
sg34
g41
sbasg21
g42
sg23
(lp2854
g44
ag45
asg34
S'(test_data["Occupation"]>18.5'
p2855
sbasg21
g62
sg23
g24
(g65
S'\x00\x00\x00\x00\x00\x802@'
p2856
tp2857
Rp2858
sg34
S'(test_data["Age"]<=30.0)'
p2859
sba(i__main__
Decision_Tree
p2860
(dp2861
g2
(lp2862
(i__main__
Decision_Tree
p2863
(dp2864
g2
(lp2865
(i__main__
Decision_Tree
p2866
(dp2867
g21
g22
sg23
g24
(g28
S'\x04\x00\x00\x00\x00\x00\x00\x00'
p2868
tp2869
Rp2870
sg34
g35
sba(i__main__
Decision_Tree
p2871
(dp2872
g21
g22
sg23
g24
(g28
S'\x04\x00\x00\x00\x00\x00\x00\x00'
p2873
tp2874
Rp2875
sg34
g41
sbasg21
g42
sg23
(lp2876
g44
ag45
asg34
S'(test_data["Occupation"]<=1.5)'
p2877
sba(i__main__
Decision_Tree
p2878
(dp2879
g2
(lp2880
(i__main__
Decision_Tree
p2881
(dp2882
g21
g22
sg23
g24
(g28
S'\x04\x00\x00\x00\x00\x00\x00\x00'
p2883
tp2884
Rp2885
sg34
g35
sba(i__main__
Decision_Tree
p2886
(dp2887
g21
g22
sg23
g24
(g28
S'\x04\x00\x00\x00\x00\x00\x00\x00'
p2888
tp2889
Rp2890
sg34
g41
sbasg21
g42
sg23
(lp2891
g44
ag45
asg34
S'(test_data["Occupation"]>1.5'
p2892
sbasg21
g62
sg23
g24
(g65
S'\x00\x00\x00\x00\x00\x00\xf8?'
p2893
tp2894
Rp2895
sg34
S'(test_data["Age"]>30.0'
p2896
sbasg21
g109
sg23
g24
(g65
S'\x00\x00\x00\x00\x00\x00>@'
p2897
tp2898
Rp2899
sg34
S'(test_data["Genre"]=="Sci-Fi")'
p2900
sba(i__main__
Decision_Tree
p2901
(dp2902
g2
(lp2903
(i__main__
Decision_Tree
p2904
(dp2905
g2
(lp2906
(i__main__
Decision_Tree
p2907
(dp2908
g2
(lp2909
(i__main__
Decision_Tree
p2910
(dp2911
g21
g22
sg23
g24
(g28
S'\x04\x00\x00\x00\x00\x00\x00\x00'
p2912
tp2913
Rp2914
sg34
g35
sba(i__main__
Decision_Tree
p2915
(dp2916
g21
g22
sg23
g24
(g28
S'\x04\x00\x00\x00\x00\x00\x00\x00'
p2917
tp2918
Rp2919
sg34
g41
sbasg21
g42
sg23
(lp2920
g44
ag45
asg34
S'(test_data["Age"]<=21.5)'
p2921
sba(i__main__
Decision_Tree
p2922
(dp2923
g2
(lp2924
(i__main__
Decision_Tree
p2925
(dp2926
g21
g22
sg23
g24
(g28
S'\x04\x00\x00\x00\x00\x00\x00\x00'
p2927
tp2928
Rp2929
sg34
g35
sba(i__main__
Decision_Tree
p2930
(dp2931
g21
g22
sg23
g24
(g28
S'\x04\x00\x00\x00\x00\x00\x00\x00'
p2932
tp2933
Rp2934
sg34
g41
sbasg21
g42
sg23
(lp2935
g44
ag45
asg34
S'(test_data["Age"]>21.5'
p2936
sbasg21
g109
sg23
g24
(g65
S'\x00\x00\x00\x00\x00\x805@'
p2937
tp2938
Rp2939
sg34
S'(test_data["Occupation"]<=18.5)'
p2940
sba(i__main__
Decision_Tree
p2941
(dp2942
g2
(lp2943
(i__main__
Decision_Tree
p2944
(dp2945
g2
(lp2946
(i__main__
Decision_Tree
p2947
(dp2948
g21
g22
sg23
g24
(g28
S'\x04\x00\x00\x00\x00\x00\x00\x00'
p2949
tp2950
Rp2951
sg34
g35
sba(i__main__
Decision_Tree
p2952
(dp2953
g21
g22
sg23
g24
(g28
S'\x03\x00\x00\x00\x00\x00\x00\x00'
p2954
tp2955
Rp2956
sg34
g41
sbasg21
g42
sg23
(lp2957
g44
ag45
asg34
S'(test_data["Age"]<=30.0)'
p2958
sba(i__main__
Decision_Tree
p2959
(dp2960
g2
(lp2961
(i__main__
Decision_Tree
p2962
(dp2963
g21
g22
sg23
g24
(g28
S'\x04\x00\x00\x00\x00\x00\x00\x00'
p2964
tp2965
Rp2966
sg34
g35
sba(i__main__
Decision_Tree
p2967
(dp2968
g21
g22
sg23
g24
(g28
S'\x04\x00\x00\x00\x00\x00\x00\x00'
p2969
tp2970
Rp2971
sg34
g41
sbasg21
g42
sg23
(lp2972
g44
ag45
asg34
S'(test_data["Age"]>30.0'
p2973
sbasg21
g109
sg23
g24
(g65
S'\x00\x00\x00\x00\x00\x00>@'
p2974
tp2975
Rp2976
sg34
S'(test_data["Occupation"]>18.5'
p2977
sbasg21
g62
sg23
g24
(g65
S'\x00\x00\x00\x00\x00\x802@'
p2978
tp2979
Rp2980
sg34
S'(test_data["Genre"]=="Thriller")'
p2981
sba(i__main__
Decision_Tree
p2982
(dp2983
g2
(lp2984
(i__main__
Decision_Tree
p2985
(dp2986
g2
(lp2987
(i__main__
Decision_Tree
p2988
(dp2989
g2
(lp2990
(i__main__
Decision_Tree
p2991
(dp2992
g21
g22
sg23
g24
(g28
S'\x05\x00\x00\x00\x00\x00\x00\x00'
p2993
tp2994
Rp2995
sg34
g35
sba(i__main__
Decision_Tree
p2996
(dp2997
g21
g22
sg23
g24
(g28
S'\x04\x00\x00\x00\x00\x00\x00\x00'
p2998
tp2999
Rp3000
sg34
g41
sbasg21
g42
sg23
(lp3001
g44
ag45
asg34
S'(test_data["Age"]<=21.5)'
p3002
sba(i__main__
Decision_Tree
p3003
(dp3004
g2
(lp3005
(i__main__
Decision_Tree
p3006
(dp3007
g21
g22
sg23
g24
(g28
S'\x04\x00\x00\x00\x00\x00\x00\x00'
p3008
tp3009
Rp3010
sg34
g35
sba(i__main__
Decision_Tree
p3011
(dp3012
g21
g22
sg23
g24
(g28
S'\x04\x00\x00\x00\x00\x00\x00\x00'
p3013
tp3014
Rp3015
sg34
g41
sbasg21
g42
sg23
(lp3016
g44
ag45
asg34
S'(test_data["Age"]>21.5'
p3017
sbasg21
g109
sg23
g24
(g65
S'\x00\x00\x00\x00\x00\x805@'
p3018
tp3019
Rp3020
sg34
S'(test_data["Occupation"]<=18.5)'
p3021
sba(i__main__
Decision_Tree
p3022
(dp3023
g2
(lp3024
(i__main__
Decision_Tree
p3025
(dp3026
g2
(lp3027
(i__main__
Decision_Tree
p3028
(dp3029
g21
g22
sg23
g24
(g28
S'\x04\x00\x00\x00\x00\x00\x00\x00'
p3030
tp3031
Rp3032
sg34
S'(test_data["Age"]<=47.5)'
p3033
sba(i__main__
Decision_Tree
p3034
(dp3035
g21
g22
sg23
g24
(g28
S'\x04\x00\x00\x00\x00\x00\x00\x00'
p3036
tp3037
Rp3038
sg34
S'(test_data["Age"]>47.5'
p3039
sbasg21
g109
sg23
g24
(g65
S'\x00\x00\x00\x00\x00\xc0G@'
p3040
tp3041
Rp3042
sg34
g35
sba(i__main__
Decision_Tree
p3043
(dp3044
g2
(lp3045
(i__main__
Decision_Tree
p3046
(dp3047
g21
g22
sg23
g24
(g28
S'\x04\x00\x00\x00\x00\x00\x00\x00'
p3048
tp3049
Rp3050
sg34
S'(test_data["Age"]<=21.5)'
p3051
sba(i__main__
Decision_Tree
p3052
(dp3053
g21
g22
sg23
g24
(g28
S'\x04\x00\x00\x00\x00\x00\x00\x00'
p3054
tp3055
Rp3056
sg34
S'(test_data["Age"]>21.5'
p3057
sbasg21
g109
sg23
g24
(g65
S'\x00\x00\x00\x00\x00\x805@'
p3058
tp3059
Rp3060
sg34
g41
sbasg21
g42
sg23
(lp3061
g44
ag45
asg34
S'(test_data["Occupation"]>18.5'
p3062
sbasg21
g62
sg23
g24
(g65
S'\x00\x00\x00\x00\x00\x802@'
p3063
tp3064
Rp3065
sg34
S'(test_data["Genre"]=="War")'
p3066
sba(i__main__
Decision_Tree
p3067
(dp3068
g2
(lp3069
(i__main__
Decision_Tree
p3070
(dp3071
g2
(lp3072
(i__main__
Decision_Tree
p3073
(dp3074
g2
(lp3075
(i__main__
Decision_Tree
p3076
(dp3077
g21
g22
sg23
g24
(g28
S'\x04\x00\x00\x00\x00\x00\x00\x00'
p3078
tp3079
Rp3080
sg34
g35
sba(i__main__
Decision_Tree
p3081
(dp3082
g21
g22
sg23
g24
(g28
S'\x03\x00\x00\x00\x00\x00\x00\x00'
p3083
tp3084
Rp3085
sg34
g41
sbasg21
g42
sg23
(lp3086
g44
ag45
asg34
S'(test_data["Occupation"]<=18.5)'
p3087
sba(i__main__
Decision_Tree
p3088
(dp3089
g2
(lp3090
(i__main__
Decision_Tree
p3091
(dp3092
g21
g22
sg23
g24
(g28
S'\x04\x00\x00\x00\x00\x00\x00\x00'
p3093
tp3094
Rp3095
sg34
g35
sba(i__main__
Decision_Tree
p3096
(dp3097
g21
g22
sg23
g24
(g28
S'\x03\x00\x00\x00\x00\x00\x00\x00'
p3098
tp3099
Rp3100
sg34
g41
sbasg21
g42
sg23
(lp3101
g44
ag45
asg34
S'(test_data["Occupation"]>18.5'
p3102
sbasg21
g62
sg23
g24
(g65
S'\x00\x00\x00\x00\x00\x802@'
p3103
tp3104
Rp3105
sg34
S'(test_data["Age"]<=47.5)'
p3106
sba(i__main__
Decision_Tree
p3107
(dp3108
g2
(lp3109
(i__main__
Decision_Tree
p3110
(dp3111
g2
(lp3112
(i__main__
Decision_Tree
p3113
(dp3114
g21
g22
sg23
g24
(g28
S'\x03\x00\x00\x00\x00\x00\x00\x00'
p3115
tp3116
Rp3117
sg34
S'(test_data["Occupation"]<=17.5)'
p3118
sba(i__main__
Decision_Tree
p3119
(dp3120
g21
g22
sg23
g24
(g28
S'\x04\x00\x00\x00\x00\x00\x00\x00'
p3121
tp3122
Rp3123
sg34
S'(test_data["Occupation"]>17.5'
p3124
sbasg21
g62
sg23
g24
(g65
S'\x00\x00\x00\x00\x00\x801@'
p3125
tp3126
Rp3127
sg34
g35
sba(i__main__
Decision_Tree
p3128
(dp3129
g2
(lp3130
(i__main__
Decision_Tree
p3131
(dp3132
g21
g22
sg23
g24
(g28
S'\x03\x00\x00\x00\x00\x00\x00\x00'
p3133
tp3134
Rp3135
sg34
S'(test_data["Occupation"]<=8.5)'
p3136
sba(i__main__
Decision_Tree
p3137
(dp3138
g21
g22
sg23
g24
(g28
S'\x04\x00\x00\x00\x00\x00\x00\x00'
p3139
tp3140
Rp3141
sg34
S'(test_data["Occupation"]>8.5'
p3142
sbasg21
g62
sg23
g24
(g65
S'\x00\x00\x00\x00\x00\x00!@'
p3143
tp3144
Rp3145
sg34
g41
sbasg21
g42
sg23
(lp3146
g44
ag45
asg34
S'(test_data["Age"]>47.5'
p3147
sbasg21
g109
sg23
g24
(g65
S'\x00\x00\x00\x00\x00\xc0G@'
p3148
tp3149
Rp3150
sg34
S'(test_data["Genre"]=="Western")'
p3151
sbasg21
g1579
sg23
g1580
(g1581
(I0
tp3152
g1583
tp3153
Rp3154
(I1
(I18
tp3155
g25
(S'S11'
p3156
I0
I1
tp3157
Rp3158
(I3
S'|'
p3159
NNNI11
I1
I0
tp3160
bI00
S"Action\x00\x00\x00\x00\x00Adventure\x00\x00Animation\x00\x00Children's\x00Comedy\x00\x00\x00\x00\x00Crime\x00\x00\x00\x00\x00\x00DocumentaryDrama\x00\x00\x00\x00\x00\x00Fantasy\x00\x00\x00\x00Film-Noir\x00\x00Horror\x00\x00\x00\x00\x00Musical\x00\x00\x00\x00Mystery\x00\x00\x00\x00Romance\x00\x00\x00\x00Sci-Fi\x00\x00\x00\x00\x00Thriller\x00\x00\x00War\x00\x00\x00\x00\x00\x00\x00\x00Western\x00\x00\x00\x00"
p3161
tp3162
bsg34
S'(test_data["Year"]>1977.5'
p3163
sbasg21
S'Year'
p3164
sg23
g24
(g65
S'\x00\x00\x00\x00\x00\xe6\x9e@'
p3165
tp3166
Rp3167
sg34
Nsbasg21
S'root'
p3168
sg23
Nsg34
Nsb.