(i__main__
Decision_Tree
p0
(dp1
S'children'
p2
(lp3
(i__main__
Decision_Tree
p4
(dp5
g2
(lp6
(i__main__
Decision_Tree
p7
(dp8
g2
(lp9
(i__main__
Decision_Tree
p10
(dp11
g2
(lp12
(i__main__
Decision_Tree
p13
(dp14
g2
(lp15
(i__main__
Decision_Tree
p16
(dp17
g2
(lp18
(i__main__
Decision_Tree
p19
(dp20
g2
(lp21
NasS'name'
p22
S'label'
p23
sS'condition'
p24
cnumpy.core.multiarray
scalar
p25
(cnumpy
dtype
p26
(S'i8'
p27
I0
I1
tp28
Rp29
(I3
S'<'
p30
NNNI-1
I-1
I0
tp31
bS'\x04\x00\x00\x00\x00\x00\x00\x00'
p32
tp33
Rp34
sS'constraint'
p35
S'(test_data["Year"]<=1977.5) & (test_data["Genre"].str.contains("Action")) & (test_data["Age"]<=30.0) & (test_data["Occupation"]<=1.5) & (test_data["Gender"] == "M")'
p36
sba(i__main__
Decision_Tree
p37
(dp38
g2
(lp39
Nasg22
g23
sg24
g25
(g29
S'\x04\x00\x00\x00\x00\x00\x00\x00'
p40
tp41
Rp42
sg35
S'(test_data["Year"]<=1977.5) & (test_data["Genre"].str.contains("Action")) & (test_data["Age"]<=30.0) & (test_data["Occupation"]<=1.5) & (test_data["Gender"] == "F")'
p43
sbasg22
S'Gender'
p44
sg24
(lp45
S'M'
p46
aS'F'
p47
asg35
S'(test_data["Year"]<=1977.5) & (test_data["Genre"].str.contains("Action")) & (test_data["Age"]<=30.0) & (test_data["Occupation"]<=1.5)'
p48
sba(i__main__
Decision_Tree
p49
(dp50
g2
(lp51
(i__main__
Decision_Tree
p52
(dp53
g2
(lp54
Nasg22
g23
sg24
g25
(g29
S'\x05\x00\x00\x00\x00\x00\x00\x00'
p55
tp56
Rp57
sg35
S'(test_data["Year"]<=1977.5) & (test_data["Genre"].str.contains("Action")) & (test_data["Age"]<=30.0) & (test_data["Occupation"]>1.5) & (test_data["Gender"] == "M")'
p58
sba(i__main__
Decision_Tree
p59
(dp60
g2
(lp61
Nasg22
g23
sg24
g25
(g29
S'\x04\x00\x00\x00\x00\x00\x00\x00'
p62
tp63
Rp64
sg35
S'(test_data["Year"]<=1977.5) & (test_data["Genre"].str.contains("Action")) & (test_data["Age"]<=30.0) & (test_data["Occupation"]>1.5) & (test_data["Gender"] == "F")'
p65
sbasg22
g44
sg24
(lp66
g46
ag47
asg35
S'(test_data["Year"]<=1977.5) & (test_data["Genre"].str.contains("Action")) & (test_data["Age"]<=30.0) & (test_data["Occupation"]>1.5)'
p67
sbasg22
S'Occupation'
p68
sg24
g25
(g26
(S'f8'
p69
I0
I1
tp70
Rp71
(I3
S'<'
p72
NNNI-1
I-1
I0
tp73
bS'\x00\x00\x00\x00\x00\x00\xf8?'
p74
tp75
Rp76
sg35
S'(test_data["Year"]<=1977.5) & (test_data["Genre"].str.contains("Action")) & (test_data["Age"]<=30.0)'
p77
sba(i__main__
Decision_Tree
p78
(dp79
g2
(lp80
(i__main__
Decision_Tree
p81
(dp82
g2
(lp83
(i__main__
Decision_Tree
p84
(dp85
g2
(lp86
Nasg22
g23
sg24
g25
(g29
S'\x04\x00\x00\x00\x00\x00\x00\x00'
p87
tp88
Rp89
sg35
S'(test_data["Year"]<=1977.5) & (test_data["Genre"].str.contains("Action")) & (test_data["Age"]>30.0) & (test_data["Occupation"]<=1.5) & (test_data["Gender"] == "M")'
p90
sba(i__main__
Decision_Tree
p91
(dp92
g2
(lp93
Nasg22
g23
sg24
g25
(g29
S'\x04\x00\x00\x00\x00\x00\x00\x00'
p94
tp95
Rp96
sg35
S'(test_data["Year"]<=1977.5) & (test_data["Genre"].str.contains("Action")) & (test_data["Age"]>30.0) & (test_data["Occupation"]<=1.5) & (test_data["Gender"] == "F")'
p97
sbasg22
g44
sg24
(lp98
g46
ag47
asg35
S'(test_data["Year"]<=1977.5) & (test_data["Genre"].str.contains("Action")) & (test_data["Age"]>30.0) & (test_data["Occupation"]<=1.5)'
p99
sba(i__main__
Decision_Tree
p100
(dp101
g2
(lp102
(i__main__
Decision_Tree
p103
(dp104
g2
(lp105
Nasg22
g23
sg24
g25
(g29
S'\x04\x00\x00\x00\x00\x00\x00\x00'
p106
tp107
Rp108
sg35
S'(test_data["Year"]<=1977.5) & (test_data["Genre"].str.contains("Action")) & (test_data["Age"]>30.0) & (test_data["Occupation"]>1.5) & (test_data["Gender"] == "M")'
p109
sba(i__main__
Decision_Tree
p110
(dp111
g2
(lp112
Nasg22
g23
sg24
g25
(g29
S'\x04\x00\x00\x00\x00\x00\x00\x00'
p113
tp114
Rp115
sg35
S'(test_data["Year"]<=1977.5) & (test_data["Genre"].str.contains("Action")) & (test_data["Age"]>30.0) & (test_data["Occupation"]>1.5) & (test_data["Gender"] == "F")'
p116
sbasg22
g44
sg24
(lp117
g46
ag47
asg35
S'(test_data["Year"]<=1977.5) & (test_data["Genre"].str.contains("Action")) & (test_data["Age"]>30.0) & (test_data["Occupation"]>1.5)'
p118
sbasg22
g68
sg24
g25
(g71
S'\x00\x00\x00\x00\x00\x00\xf8?'
p119
tp120
Rp121
sg35
S'(test_data["Year"]<=1977.5) & (test_data["Genre"].str.contains("Action")) & (test_data["Age"]>30.0)'
p122
sbasg22
S'Age'
p123
sg24
g25
(g71
S'\x00\x00\x00\x00\x00\x00>@'
p124
tp125
Rp126
sg35
S'(test_data["Year"]<=1977.5) & (test_data["Genre"].str.contains("Action"))'
p127
sba(i__main__
Decision_Tree
p128
(dp129
g2
(lp130
(i__main__
Decision_Tree
p131
(dp132
g2
(lp133
(i__main__
Decision_Tree
p134
(dp135
g2
(lp136
(i__main__
Decision_Tree
p137
(dp138
g2
(lp139
Nasg22
g23
sg24
g25
(g29
S'\x05\x00\x00\x00\x00\x00\x00\x00'
p140
tp141
Rp142
sg35
S'(test_data["Year"]<=1977.5) & (test_data["Genre"].str.contains("Adventure")) & (test_data["Age"]<=21.5) & (test_data["Occupation"]<=2.5) & (test_data["Gender"] == "M")'
p143
sba(i__main__
Decision_Tree
p144
(dp145
g2
(lp146
Nasg22
g23
sg24
g25
(g29
S'\x05\x00\x00\x00\x00\x00\x00\x00'
p147
tp148
Rp149
sg35
S'(test_data["Year"]<=1977.5) & (test_data["Genre"].str.contains("Adventure")) & (test_data["Age"]<=21.5) & (test_data["Occupation"]<=2.5) & (test_data["Gender"] == "F")'
p150
sbasg22
g44
sg24
(lp151
g46
ag47
asg35
S'(test_data["Year"]<=1977.5) & (test_data["Genre"].str.contains("Adventure")) & (test_data["Age"]<=21.5) & (test_data["Occupation"]<=2.5)'
p152
sba(i__main__
Decision_Tree
p153
(dp154
g2
(lp155
(i__main__
Decision_Tree
p156
(dp157
g2
(lp158
Nasg22
g23
sg24
g25
(g29
S'\x05\x00\x00\x00\x00\x00\x00\x00'
p159
tp160
Rp161
sg35
S'(test_data["Year"]<=1977.5) & (test_data["Genre"].str.contains("Adventure")) & (test_data["Age"]<=21.5) & (test_data["Occupation"]>2.5) & (test_data["Gender"] == "M")'
p162
sba(i__main__
Decision_Tree
p163
(dp164
g2
(lp165
Nasg22
g23
sg24
g25
(g29
S'\x05\x00\x00\x00\x00\x00\x00\x00'
p166
tp167
Rp168
sg35
S'(test_data["Year"]<=1977.5) & (test_data["Genre"].str.contains("Adventure")) & (test_data["Age"]<=21.5) & (test_data["Occupation"]>2.5) & (test_data["Gender"] == "F")'
p169
sbasg22
g44
sg24
(lp170
g46
ag47
asg35
S'(test_data["Year"]<=1977.5) & (test_data["Genre"].str.contains("Adventure")) & (test_data["Age"]<=21.5) & (test_data["Occupation"]>2.5)'
p171
sbasg22
g68
sg24
g25
(g71
S'\x00\x00\x00\x00\x00\x00\x04@'
p172
tp173
Rp174
sg35
S'(test_data["Year"]<=1977.5) & (test_data["Genre"].str.contains("Adventure")) & (test_data["Age"]<=21.5)'
p175
sba(i__main__
Decision_Tree
p176
(dp177
g2
(lp178
(i__main__
Decision_Tree
p179
(dp180
g2
(lp181
(i__main__
Decision_Tree
p182
(dp183
g2
(lp184
Nasg22
g23
sg24
g25
(g29
S'\x04\x00\x00\x00\x00\x00\x00\x00'
p185
tp186
Rp187
sg35
S'(test_data["Year"]<=1977.5) & (test_data["Genre"].str.contains("Adventure")) & (test_data["Age"]>21.5) & (test_data["Occupation"]<=11.5) & (test_data["Gender"] == "M")'
p188
sba(i__main__
Decision_Tree
p189
(dp190
g2
(lp191
Nasg22
g23
sg24
g25
(g29
S'\x04\x00\x00\x00\x00\x00\x00\x00'
p192
tp193
Rp194
sg35
S'(test_data["Year"]<=1977.5) & (test_data["Genre"].str.contains("Adventure")) & (test_data["Age"]>21.5) & (test_data["Occupation"]<=11.5) & (test_data["Gender"] == "F")'
p195
sbasg22
g44
sg24
(lp196
g46
ag47
asg35
S'(test_data["Year"]<=1977.5) & (test_data["Genre"].str.contains("Adventure")) & (test_data["Age"]>21.5) & (test_data["Occupation"]<=11.5)'
p197
sba(i__main__
Decision_Tree
p198
(dp199
g2
(lp200
(i__main__
Decision_Tree
p201
(dp202
g2
(lp203
Nasg22
g23
sg24
g25
(g29
S'\x04\x00\x00\x00\x00\x00\x00\x00'
p204
tp205
Rp206
sg35
S'(test_data["Year"]<=1977.5) & (test_data["Genre"].str.contains("Adventure")) & (test_data["Age"]>21.5) & (test_data["Occupation"]>11.5) & (test_data["Gender"] == "M")'
p207
sba(i__main__
Decision_Tree
p208
(dp209
g2
(lp210
Nasg22
g23
sg24
g25
(g29
S'\x04\x00\x00\x00\x00\x00\x00\x00'
p211
tp212
Rp213
sg35
S'(test_data["Year"]<=1977.5) & (test_data["Genre"].str.contains("Adventure")) & (test_data["Age"]>21.5) & (test_data["Occupation"]>11.5) & (test_data["Gender"] == "F")'
p214
sbasg22
g44
sg24
(lp215
g46
ag47
asg35
S'(test_data["Year"]<=1977.5) & (test_data["Genre"].str.contains("Adventure")) & (test_data["Age"]>21.5) & (test_data["Occupation"]>11.5)'
p216
sbasg22
g68
sg24
g25
(g71
S"\x00\x00\x00\x00\x00\x00'@"
p217
tp218
Rp219
sg35
S'(test_data["Year"]<=1977.5) & (test_data["Genre"].str.contains("Adventure")) & (test_data["Age"]>21.5)'
p220
sbasg22
g123
sg24
g25
(g71
S'\x00\x00\x00\x00\x00\x805@'
p221
tp222
Rp223
sg35
S'(test_data["Year"]<=1977.5) & (test_data["Genre"].str.contains("Adventure"))'
p224
sba(i__main__
Decision_Tree
p225
(dp226
g2
(lp227
(i__main__
Decision_Tree
p228
(dp229
g2
(lp230
(i__main__
Decision_Tree
p231
(dp232
g2
(lp233
(i__main__
Decision_Tree
p234
(dp235
g2
(lp236
Nasg22
g23
sg24
g25
(g29
S'\x04\x00\x00\x00\x00\x00\x00\x00'
p237
tp238
Rp239
sg35
S'(test_data["Year"]<=1977.5) & (test_data["Genre"].str.contains("Animation")) & (test_data["Gender"] == "M") & (test_data["Age"]<=21.5) & (test_data["Occupation"]<=19.5)'
p240
sba(i__main__
Decision_Tree
p241
(dp242
g2
(lp243
Nasg22
g23
sg24
g25
(g29
S'\x05\x00\x00\x00\x00\x00\x00\x00'
p244
tp245
Rp246
sg35
S'(test_data["Year"]<=1977.5) & (test_data["Genre"].str.contains("Animation")) & (test_data["Gender"] == "M") & (test_data["Age"]<=21.5) & (test_data["Occupation"]>19.5)'
p247
sbasg22
g68
sg24
g25
(g71
S'\x00\x00\x00\x00\x00\x803@'
p248
tp249
Rp250
sg35
S'(test_data["Year"]<=1977.5) & (test_data["Genre"].str.contains("Animation")) & (test_data["Gender"] == "M") & (test_data["Age"]<=21.5)'
p251
sba(i__main__
Decision_Tree
p252
(dp253
g2
(lp254
(i__main__
Decision_Tree
p255
(dp256
g2
(lp257
Nasg22
g23
sg24
g25
(g29
S'\x04\x00\x00\x00\x00\x00\x00\x00'
p258
tp259
Rp260
sg35
S'(test_data["Year"]<=1977.5) & (test_data["Genre"].str.contains("Animation")) & (test_data["Gender"] == "M") & (test_data["Age"]>21.5) & (test_data["Occupation"]<=16.5)'
p261
sba(i__main__
Decision_Tree
p262
(dp263
g2
(lp264
Nasg22
g23
sg24
g25
(g29
S'\x04\x00\x00\x00\x00\x00\x00\x00'
p265
tp266
Rp267
sg35
S'(test_data["Year"]<=1977.5) & (test_data["Genre"].str.contains("Animation")) & (test_data["Gender"] == "M") & (test_data["Age"]>21.5) & (test_data["Occupation"]>16.5)'
p268
sbasg22
g68
sg24
g25
(g71
S'\x00\x00\x00\x00\x00\x800@'
p269
tp270
Rp271
sg35
S'(test_data["Year"]<=1977.5) & (test_data["Genre"].str.contains("Animation")) & (test_data["Gender"] == "M") & (test_data["Age"]>21.5)'
p272
sbasg22
g123
sg24
g25
(g71
S'\x00\x00\x00\x00\x00\x805@'
p273
tp274
Rp275
sg35
S'(test_data["Year"]<=1977.5) & (test_data["Genre"].str.contains("Animation")) & (test_data["Gender"] == "M")'
p276
sba(i__main__
Decision_Tree
p277
(dp278
g2
(lp279
(i__main__
Decision_Tree
p280
(dp281
g2
(lp282
(i__main__
Decision_Tree
p283
(dp284
g2
(lp285
Nasg22
g23
sg24
g25
(g29
S'\x04\x00\x00\x00\x00\x00\x00\x00'
p286
tp287
Rp288
sg35
S'(test_data["Year"]<=1977.5) & (test_data["Genre"].str.contains("Animation")) & (test_data["Gender"] == "F") & (test_data["Age"]<=21.5) & (test_data["Occupation"]<=14.5)'
p289
sba(i__main__
Decision_Tree
p290
(dp291
g2
(lp292
Nasg22
g23
sg24
g25
(g29
S'\x05\x00\x00\x00\x00\x00\x00\x00'
p293
tp294
Rp295
sg35
S'(test_data["Year"]<=1977.5) & (test_data["Genre"].str.contains("Animation")) & (test_data["Gender"] == "F") & (test_data["Age"]<=21.5) & (test_data["Occupation"]>14.5)'
p296
sbasg22
g68
sg24
g25
(g71
S'\x00\x00\x00\x00\x00\x00-@'
p297
tp298
Rp299
sg35
S'(test_data["Year"]<=1977.5) & (test_data["Genre"].str.contains("Animation")) & (test_data["Gender"] == "F") & (test_data["Age"]<=21.5)'
p300
sba(i__main__
Decision_Tree
p301
(dp302
g2
(lp303
(i__main__
Decision_Tree
p304
(dp305
g2
(lp306
Nasg22
g23
sg24
g25
(g29
S'\x04\x00\x00\x00\x00\x00\x00\x00'
p307
tp308
Rp309
sg35
S'(test_data["Year"]<=1977.5) & (test_data["Genre"].str.contains("Animation")) & (test_data["Gender"] == "F") & (test_data["Age"]>21.5) & (test_data["Occupation"]<=11.5)'
p310
sba(i__main__
Decision_Tree
p311
(dp312
g2
(lp313
Nasg22
g23
sg24
g25
(g29
S'\x04\x00\x00\x00\x00\x00\x00\x00'
p314
tp315
Rp316
sg35
S'(test_data["Year"]<=1977.5) & (test_data["Genre"].str.contains("Animation")) & (test_data["Gender"] == "F") & (test_data["Age"]>21.5) & (test_data["Occupation"]>11.5)'
p317
sbasg22
g68
sg24
g25
(g71
S"\x00\x00\x00\x00\x00\x00'@"
p318
tp319
Rp320
sg35
S'(test_data["Year"]<=1977.5) & (test_data["Genre"].str.contains("Animation")) & (test_data["Gender"] == "F") & (test_data["Age"]>21.5)'
p321
sbasg22
g123
sg24
g25
(g71
S'\x00\x00\x00\x00\x00\x805@'
p322
tp323
Rp324
sg35
S'(test_data["Year"]<=1977.5) & (test_data["Genre"].str.contains("Animation")) & (test_data["Gender"] == "F")'
p325
sbasg22
g44
sg24
(lp326
g46
ag47
asg35
S'(test_data["Year"]<=1977.5) & (test_data["Genre"].str.contains("Animation"))'
p327
sba(i__main__
Decision_Tree
p328
(dp329
g2
(lp330
(i__main__
Decision_Tree
p331
(dp332
g2
(lp333
(i__main__
Decision_Tree
p334
(dp335
g2
(lp336
(i__main__
Decision_Tree
p337
(dp338
g2
(lp339
Nasg22
g23
sg24
g25
(g29
S'\x04\x00\x00\x00\x00\x00\x00\x00'
p340
tp341
Rp342
sg35
S'(test_data["Year"]<=1977.5) & (test_data["Genre"].str.contains("Children\'s")) & (test_data["Gender"] == "M") & (test_data["Age"]<=21.5) & (test_data["Occupation"]<=19.5)'
p343
sba(i__main__
Decision_Tree
p344
(dp345
g2
(lp346
Nasg22
g23
sg24
g25
(g29
S'\x05\x00\x00\x00\x00\x00\x00\x00'
p347
tp348
Rp349
sg35
S'(test_data["Year"]<=1977.5) & (test_data["Genre"].str.contains("Children\'s")) & (test_data["Gender"] == "M") & (test_data["Age"]<=21.5) & (test_data["Occupation"]>19.5)'
p350
sbasg22
g68
sg24
g25
(g71
S'\x00\x00\x00\x00\x00\x803@'
p351
tp352
Rp353
sg35
S'(test_data["Year"]<=1977.5) & (test_data["Genre"].str.contains("Children\'s")) & (test_data["Gender"] == "M") & (test_data["Age"]<=21.5)'
p354
sba(i__main__
Decision_Tree
p355
(dp356
g2
(lp357
(i__main__
Decision_Tree
p358
(dp359
g2
(lp360
Nasg22
g23
sg24
g25
(g29
S'\x04\x00\x00\x00\x00\x00\x00\x00'
p361
tp362
Rp363
sg35
S'(test_data["Year"]<=1977.5) & (test_data["Genre"].str.contains("Children\'s")) & (test_data["Gender"] == "M") & (test_data["Age"]>21.5) & (test_data["Occupation"]<=15.5)'
p364
sba(i__main__
Decision_Tree
p365
(dp366
g2
(lp367
Nasg22
g23
sg24
g25
(g29
S'\x04\x00\x00\x00\x00\x00\x00\x00'
p368
tp369
Rp370
sg35
S'(test_data["Year"]<=1977.5) & (test_data["Genre"].str.contains("Children\'s")) & (test_data["Gender"] == "M") & (test_data["Age"]>21.5) & (test_data["Occupation"]>15.5)'
p371
sbasg22
g68
sg24
g25
(g71
S'\x00\x00\x00\x00\x00\x00/@'
p372
tp373
Rp374
sg35
S'(test_data["Year"]<=1977.5) & (test_data["Genre"].str.contains("Children\'s")) & (test_data["Gender"] == "M") & (test_data["Age"]>21.5)'
p375
sbasg22
g123
sg24
g25
(g71
S'\x00\x00\x00\x00\x00\x805@'
p376
tp377
Rp378
sg35
S'(test_data["Year"]<=1977.5) & (test_data["Genre"].str.contains("Children\'s")) & (test_data["Gender"] == "M")'
p379
sba(i__main__
Decision_Tree
p380
(dp381
g2
(lp382
(i__main__
Decision_Tree
p383
(dp384
g2
(lp385
(i__main__
Decision_Tree
p386
(dp387
g2
(lp388
Nasg22
g23
sg24
g25
(g29
S'\x04\x00\x00\x00\x00\x00\x00\x00'
p389
tp390
Rp391
sg35
S'(test_data["Year"]<=1977.5) & (test_data["Genre"].str.contains("Children\'s")) & (test_data["Gender"] == "F") & (test_data["Age"]<=21.5) & (test_data["Occupation"]<=19.5)'
p392
sba(i__main__
Decision_Tree
p393
(dp394
g2
(lp395
Nasg22
g23
sg24
g25
(g29
S'\x01\x00\x00\x00\x00\x00\x00\x00'
p396
tp397
Rp398
sg35
S'(test_data["Year"]<=1977.5) & (test_data["Genre"].str.contains("Children\'s")) & (test_data["Gender"] == "F") & (test_data["Age"]<=21.5) & (test_data["Occupation"]>19.5)'
p399
sbasg22
g68
sg24
g25
(g71
S'\x00\x00\x00\x00\x00\x803@'
p400
tp401
Rp402
sg35
S'(test_data["Year"]<=1977.5) & (test_data["Genre"].str.contains("Children\'s")) & (test_data["Gender"] == "F") & (test_data["Age"]<=21.5)'
p403
sba(i__main__
Decision_Tree
p404
(dp405
g2
(lp406
(i__main__
Decision_Tree
p407
(dp408
g2
(lp409
Nasg22
g23
sg24
g25
(g29
S'\x04\x00\x00\x00\x00\x00\x00\x00'
p410
tp411
Rp412
sg35
S'(test_data["Year"]<=1977.5) & (test_data["Genre"].str.contains("Children\'s")) & (test_data["Gender"] == "F") & (test_data["Age"]>21.5) & (test_data["Occupation"]<=3.5)'
p413
sba(i__main__
Decision_Tree
p414
(dp415
g2
(lp416
Nasg22
g23
sg24
g25
(g29
S'\x04\x00\x00\x00\x00\x00\x00\x00'
p417
tp418
Rp419
sg35
S'(test_data["Year"]<=1977.5) & (test_data["Genre"].str.contains("Children\'s")) & (test_data["Gender"] == "F") & (test_data["Age"]>21.5) & (test_data["Occupation"]>3.5)'
p420
sbasg22
g68
sg24
g25
(g71
S'\x00\x00\x00\x00\x00\x00\x0c@'
p421
tp422
Rp423
sg35
S'(test_data["Year"]<=1977.5) & (test_data["Genre"].str.contains("Children\'s")) & (test_data["Gender"] == "F") & (test_data["Age"]>21.5)'
p424
sbasg22
g123
sg24
g25
(g71
S'\x00\x00\x00\x00\x00\x805@'
p425
tp426
Rp427
sg35
S'(test_data["Year"]<=1977.5) & (test_data["Genre"].str.contains("Children\'s")) & (test_data["Gender"] == "F")'
p428
sbasg22
g44
sg24
(lp429
g46
ag47
asg35
S'(test_data["Year"]<=1977.5) & (test_data["Genre"].str.contains("Children\'s"))'
p430
sba(i__main__
Decision_Tree
p431
(dp432
g2
(lp433
(i__main__
Decision_Tree
p434
(dp435
g2
(lp436
(i__main__
Decision_Tree
p437
(dp438
g2
(lp439
(i__main__
Decision_Tree
p440
(dp441
g2
(lp442
Nasg22
g23
sg24
g25
(g29
S'\x04\x00\x00\x00\x00\x00\x00\x00'
p443
tp444
Rp445
sg35
S'(test_data["Year"]<=1977.5) & (test_data["Genre"].str.contains("Comedy")) & (test_data["Gender"] == "M") & (test_data["Age"]<=21.5) & (test_data["Occupation"]<=5.5)'
p446
sba(i__main__
Decision_Tree
p447
(dp448
g2
(lp449
Nasg22
g23
sg24
g25
(g29
S'\x04\x00\x00\x00\x00\x00\x00\x00'
p450
tp451
Rp452
sg35
S'(test_data["Year"]<=1977.5) & (test_data["Genre"].str.contains("Comedy")) & (test_data["Gender"] == "M") & (test_data["Age"]<=21.5) & (test_data["Occupation"]>5.5)'
p453
sbasg22
g68
sg24
g25
(g71
S'\x00\x00\x00\x00\x00\x00\x16@'
p454
tp455
Rp456
sg35
S'(test_data["Year"]<=1977.5) & (test_data["Genre"].str.contains("Comedy")) & (test_data["Gender"] == "M") & (test_data["Age"]<=21.5)'
p457
sba(i__main__
Decision_Tree
p458
(dp459
g2
(lp460
(i__main__
Decision_Tree
p461
(dp462
g2
(lp463
Nasg22
g23
sg24
g25
(g29
S'\x04\x00\x00\x00\x00\x00\x00\x00'
p464
tp465
Rp466
sg35
S'(test_data["Year"]<=1977.5) & (test_data["Genre"].str.contains("Comedy")) & (test_data["Gender"] == "M") & (test_data["Age"]>21.5) & (test_data["Occupation"]<=4.5)'
p467
sba(i__main__
Decision_Tree
p468
(dp469
g2
(lp470
Nasg22
g23
sg24
g25
(g29
S'\x04\x00\x00\x00\x00\x00\x00\x00'
p471
tp472
Rp473
sg35
S'(test_data["Year"]<=1977.5) & (test_data["Genre"].str.contains("Comedy")) & (test_data["Gender"] == "M") & (test_data["Age"]>21.5) & (test_data["Occupation"]>4.5)'
p474
sbasg22
g68
sg24
g25
(g71
S'\x00\x00\x00\x00\x00\x00\x12@'
p475
tp476
Rp477
sg35
S'(test_data["Year"]<=1977.5) & (test_data["Genre"].str.contains("Comedy")) & (test_data["Gender"] == "M") & (test_data["Age"]>21.5)'
p478
sbasg22
g123
sg24
g25
(g71
S'\x00\x00\x00\x00\x00\x805@'
p479
tp480
Rp481
sg35
S'(test_data["Year"]<=1977.5) & (test_data["Genre"].str.contains("Comedy")) & (test_data["Gender"] == "M")'
p482
sba(i__main__
Decision_Tree
p483
(dp484
g2
(lp485
(i__main__
Decision_Tree
p486
(dp487
g2
(lp488
(i__main__
Decision_Tree
p489
(dp490
g2
(lp491
Nasg22
g23
sg24
g25
(g29
S'\x04\x00\x00\x00\x00\x00\x00\x00'
p492
tp493
Rp494
sg35
S'(test_data["Year"]<=1977.5) & (test_data["Genre"].str.contains("Comedy")) & (test_data["Gender"] == "F") & (test_data["Age"]<=21.5) & (test_data["Occupation"]<=2.5)'
p495
sba(i__main__
Decision_Tree
p496
(dp497
g2
(lp498
Nasg22
g23
sg24
g25
(g29
S'\x05\x00\x00\x00\x00\x00\x00\x00'
p499
tp500
Rp501
sg35
S'(test_data["Year"]<=1977.5) & (test_data["Genre"].str.contains("Comedy")) & (test_data["Gender"] == "F") & (test_data["Age"]<=21.5) & (test_data["Occupation"]>2.5)'
p502
sbasg22
g68
sg24
g25
(g71
S'\x00\x00\x00\x00\x00\x00\x04@'
p503
tp504
Rp505
sg35
S'(test_data["Year"]<=1977.5) & (test_data["Genre"].str.contains("Comedy")) & (test_data["Gender"] == "F") & (test_data["Age"]<=21.5)'
p506
sba(i__main__
Decision_Tree
p507
(dp508
g2
(lp509
(i__main__
Decision_Tree
p510
(dp511
g2
(lp512
Nasg22
g23
sg24
g25
(g29
S'\x04\x00\x00\x00\x00\x00\x00\x00'
p513
tp514
Rp515
sg35
S'(test_data["Year"]<=1977.5) & (test_data["Genre"].str.contains("Comedy")) & (test_data["Gender"] == "F") & (test_data["Age"]>21.5) & (test_data["Occupation"]<=12.5)'
p516
sba(i__main__
Decision_Tree
p517
(dp518
g2
(lp519
Nasg22
g23
sg24
g25
(g29
S'\x04\x00\x00\x00\x00\x00\x00\x00'
p520
tp521
Rp522
sg35
S'(test_data["Year"]<=1977.5) & (test_data["Genre"].str.contains("Comedy")) & (test_data["Gender"] == "F") & (test_data["Age"]>21.5) & (test_data["Occupation"]>12.5)'
p523
sbasg22
g68
sg24
g25
(g71
S'\x00\x00\x00\x00\x00\x00)@'
p524
tp525
Rp526
sg35
S'(test_data["Year"]<=1977.5) & (test_data["Genre"].str.contains("Comedy")) & (test_data["Gender"] == "F") & (test_data["Age"]>21.5)'
p527
sbasg22
g123
sg24
g25
(g71
S'\x00\x00\x00\x00\x00\x805@'
p528
tp529
Rp530
sg35
S'(test_data["Year"]<=1977.5) & (test_data["Genre"].str.contains("Comedy")) & (test_data["Gender"] == "F")'
p531
sbasg22
g44
sg24
(lp532
g46
ag47
asg35
S'(test_data["Year"]<=1977.5) & (test_data["Genre"].str.contains("Comedy"))'
p533
sba(i__main__
Decision_Tree
p534
(dp535
g2
(lp536
(i__main__
Decision_Tree
p537
(dp538
g2
(lp539
(i__main__
Decision_Tree
p540
(dp541
g2
(lp542
(i__main__
Decision_Tree
p543
(dp544
g2
(lp545
Nasg22
g23
sg24
g25
(g29
S'\x05\x00\x00\x00\x00\x00\x00\x00'
p546
tp547
Rp548
sg35
S'(test_data["Year"]<=1977.5) & (test_data["Genre"].str.contains("Crime")) & (test_data["Age"]<=30.0) & (test_data["Occupation"]<=3.5) & (test_data["Gender"] == "M")'
p549
sba(i__main__
Decision_Tree
p550
(dp551
g2
(lp552
Nasg22
g23
sg24
g25
(g29
S'\x05\x00\x00\x00\x00\x00\x00\x00'
p553
tp554
Rp555
sg35
S'(test_data["Year"]<=1977.5) & (test_data["Genre"].str.contains("Crime")) & (test_data["Age"]<=30.0) & (test_data["Occupation"]<=3.5) & (test_data["Gender"] == "F")'
p556
sbasg22
g44
sg24
(lp557
g46
ag47
asg35
S'(test_data["Year"]<=1977.5) & (test_data["Genre"].str.contains("Crime")) & (test_data["Age"]<=30.0) & (test_data["Occupation"]<=3.5)'
p558
sba(i__main__
Decision_Tree
p559
(dp560
g2
(lp561
(i__main__
Decision_Tree
p562
(dp563
g2
(lp564
Nasg22
g23
sg24
g25
(g29
S'\x05\x00\x00\x00\x00\x00\x00\x00'
p565
tp566
Rp567
sg35
S'(test_data["Year"]<=1977.5) & (test_data["Genre"].str.contains("Crime")) & (test_data["Age"]<=30.0) & (test_data["Occupation"]>3.5) & (test_data["Gender"] == "M")'
p568
sba(i__main__
Decision_Tree
p569
(dp570
g2
(lp571
Nasg22
g23
sg24
g25
(g29
S'\x05\x00\x00\x00\x00\x00\x00\x00'
p572
tp573
Rp574
sg35
S'(test_data["Year"]<=1977.5) & (test_data["Genre"].str.contains("Crime")) & (test_data["Age"]<=30.0) & (test_data["Occupation"]>3.5) & (test_data["Gender"] == "F")'
p575
sbasg22
g44
sg24
(lp576
g46
ag47
asg35
S'(test_data["Year"]<=1977.5) & (test_data["Genre"].str.contains("Crime")) & (test_data["Age"]<=30.0) & (test_data["Occupation"]>3.5)'
p577
sbasg22
g68
sg24
g25
(g71
S'\x00\x00\x00\x00\x00\x00\x0c@'
p578
tp579
Rp580
sg35
S'(test_data["Year"]<=1977.5) & (test_data["Genre"].str.contains("Crime")) & (test_data["Age"]<=30.0)'
p581
sba(i__main__
Decision_Tree
p582
(dp583
g2
(lp584
(i__main__
Decision_Tree
p585
(dp586
g2
(lp587
(i__main__
Decision_Tree
p588
(dp589
g2
(lp590
Nasg22
g23
sg24
g25
(g29
S'\x05\x00\x00\x00\x00\x00\x00\x00'
p591
tp592
Rp593
sg35
S'(test_data["Year"]<=1977.5) & (test_data["Genre"].str.contains("Crime")) & (test_data["Age"]>30.0) & (test_data["Occupation"]<=18.5) & (test_data["Gender"] == "M")'
p594
sba(i__main__
Decision_Tree
p595
(dp596
g2
(lp597
Nasg22
g23
sg24
g25
(g29
S'\x04\x00\x00\x00\x00\x00\x00\x00'
p598
tp599
Rp600
sg35
S'(test_data["Year"]<=1977.5) & (test_data["Genre"].str.contains("Crime")) & (test_data["Age"]>30.0) & (test_data["Occupation"]<=18.5) & (test_data["Gender"] == "F")'
p601
sbasg22
g44
sg24
(lp602
g46
ag47
asg35
S'(test_data["Year"]<=1977.5) & (test_data["Genre"].str.contains("Crime")) & (test_data["Age"]>30.0) & (test_data["Occupation"]<=18.5)'
p603
sba(i__main__
Decision_Tree
p604
(dp605
g2
(lp606
(i__main__
Decision_Tree
p607
(dp608
g2
(lp609
Nasg22
g23
sg24
g25
(g29
S'\x05\x00\x00\x00\x00\x00\x00\x00'
p610
tp611
Rp612
sg35
S'(test_data["Year"]<=1977.5) & (test_data["Genre"].str.contains("Crime")) & (test_data["Age"]>30.0) & (test_data["Occupation"]>18.5) & (test_data["Gender"] == "M")'
p613
sba(i__main__
Decision_Tree
p614
(dp615
g2
(lp616
Nasg22
g23
sg24
g25
(g29
S'\x04\x00\x00\x00\x00\x00\x00\x00'
p617
tp618
Rp619
sg35
S'(test_data["Year"]<=1977.5) & (test_data["Genre"].str.contains("Crime")) & (test_data["Age"]>30.0) & (test_data["Occupation"]>18.5) & (test_data["Gender"] == "F")'
p620
sbasg22
g44
sg24
(lp621
g46
ag47
asg35
S'(test_data["Year"]<=1977.5) & (test_data["Genre"].str.contains("Crime")) & (test_data["Age"]>30.0) & (test_data["Occupation"]>18.5)'
p622
sbasg22
g68
sg24
g25
(g71
S'\x00\x00\x00\x00\x00\x802@'
p623
tp624
Rp625
sg35
S'(test_data["Year"]<=1977.5) & (test_data["Genre"].str.contains("Crime")) & (test_data["Age"]>30.0)'
p626
sbasg22
g123
sg24
g25
(g71
S'\x00\x00\x00\x00\x00\x00>@'
p627
tp628
Rp629
sg35
S'(test_data["Year"]<=1977.5) & (test_data["Genre"].str.contains("Crime"))'
p630
sba(i__main__
Decision_Tree
p631
(dp632
g2
(lp633
(i__main__
Decision_Tree
p634
(dp635
g2
(lp636
(i__main__
Decision_Tree
p637
(dp638
g2
(lp639
(i__main__
Decision_Tree
p640
(dp641
g2
(lp642
Nasg22
g23
sg24
g25
(g29
S'\x05\x00\x00\x00\x00\x00\x00\x00'
p643
tp644
Rp645
sg35
S'(test_data["Year"]<=1977.5) & (test_data["Genre"].str.contains("Documentary")) & (test_data["Gender"] == "M") & (test_data["Occupation"]<=4.5) & (test_data["Age"]<=30.0)'
p646
sba(i__main__
Decision_Tree
p647
(dp648
g2
(lp649
Nasg22
g23
sg24
g25
(g29
S'\x04\x00\x00\x00\x00\x00\x00\x00'
p650
tp651
Rp652
sg35
S'(test_data["Year"]<=1977.5) & (test_data["Genre"].str.contains("Documentary")) & (test_data["Gender"] == "M") & (test_data["Occupation"]<=4.5) & (test_data["Age"]>30.0)'
p653
sbasg22
g123
sg24
g25
(g71
S'\x00\x00\x00\x00\x00\x00>@'
p654
tp655
Rp656
sg35
S'(test_data["Year"]<=1977.5) & (test_data["Genre"].str.contains("Documentary")) & (test_data["Gender"] == "M") & (test_data["Occupation"]<=4.5)'
p657
sba(i__main__
Decision_Tree
p658
(dp659
g2
(lp660
(i__main__
Decision_Tree
p661
(dp662
g2
(lp663
Nasg22
g23
sg24
g25
(g29
S'\x04\x00\x00\x00\x00\x00\x00\x00'
p664
tp665
Rp666
sg35
S'(test_data["Year"]<=1977.5) & (test_data["Genre"].str.contains("Documentary")) & (test_data["Gender"] == "M") & (test_data["Occupation"]>4.5) & (test_data["Age"]<=53.0)'
p667
sba(i__main__
Decision_Tree
p668
(dp669
g2
(lp670
Nasg22
g23
sg24
g25
(g29
S'\x04\x00\x00\x00\x00\x00\x00\x00'
p671
tp672
Rp673
sg35
S'(test_data["Year"]<=1977.5) & (test_data["Genre"].str.contains("Documentary")) & (test_data["Gender"] == "M") & (test_data["Occupation"]>4.5) & (test_data["Age"]>53.0)'
p674
sbasg22
g123
sg24
g25
(g71
S'\x00\x00\x00\x00\x00\x80J@'
p675
tp676
Rp677
sg35
S'(test_data["Year"]<=1977.5) & (test_data["Genre"].str.contains("Documentary")) & (test_data["Gender"] == "M") & (test_data["Occupation"]>4.5)'
p678
sbasg22
g68
sg24
g25
(g71
S'\x00\x00\x00\x00\x00\x00\x12@'
p679
tp680
Rp681
sg35
S'(test_data["Year"]<=1977.5) & (test_data["Genre"].str.contains("Documentary")) & (test_data["Gender"] == "M")'
p682
sba(i__main__
Decision_Tree
p683
(dp684
g2
(lp685
(i__main__
Decision_Tree
p686
(dp687
g2
(lp688
(i__main__
Decision_Tree
p689
(dp690
g2
(lp691
Nasg22
g23
sg24
g25
(g29
S'\x03\x00\x00\x00\x00\x00\x00\x00'
p692
tp693
Rp694
sg35
S'(test_data["Year"]<=1977.5) & (test_data["Genre"].str.contains("Documentary")) & (test_data["Gender"] == "F") & (test_data["Occupation"]<=5.0) & (test_data["Age"]<=40.0)'
p695
sba(i__main__
Decision_Tree
p696
(dp697
g2
(lp698
Nasg22
g23
sg24
g25
(g29
S'\x03\x00\x00\x00\x00\x00\x00\x00'
p699
tp700
Rp701
sg35
S'(test_data["Year"]<=1977.5) & (test_data["Genre"].str.contains("Documentary")) & (test_data["Gender"] == "F") & (test_data["Occupation"]<=5.0) & (test_data["Age"]>40.0)'
p702
sbasg22
g123
sg24
g25
(g71
S'\x00\x00\x00\x00\x00\x00D@'
p703
tp704
Rp705
sg35
S'(test_data["Year"]<=1977.5) & (test_data["Genre"].str.contains("Documentary")) & (test_data["Gender"] == "F") & (test_data["Occupation"]<=5.0)'
p706
sba(i__main__
Decision_Tree
p707
(dp708
g2
(lp709
(i__main__
Decision_Tree
p710
(dp711
g2
(lp712
Nasg22
g23
sg24
g25
(g29
S'\x04\x00\x00\x00\x00\x00\x00\x00'
p713
tp714
Rp715
sg35
S'(test_data["Year"]<=1977.5) & (test_data["Genre"].str.contains("Documentary")) & (test_data["Gender"] == "F") & (test_data["Occupation"]>5.0) & (test_data["Age"]<=30.0)'
p716
sba(i__main__
Decision_Tree
p717
(dp718
g2
(lp719
Nasg22
g23
sg24
g25
(g29
S'\x03\x00\x00\x00\x00\x00\x00\x00'
p720
tp721
Rp722
sg35
S'(test_data["Year"]<=1977.5) & (test_data["Genre"].str.contains("Documentary")) & (test_data["Gender"] == "F") & (test_data["Occupation"]>5.0) & (test_data["Age"]>30.0)'
p723
sbasg22
g123
sg24
g25
(g71
S'\x00\x00\x00\x00\x00\x00>@'
p724
tp725
Rp726
sg35
S'(test_data["Year"]<=1977.5) & (test_data["Genre"].str.contains("Documentary")) & (test_data["Gender"] == "F") & (test_data["Occupation"]>5.0)'
p727
sbasg22
g68
sg24
g25
(g71
S'\x00\x00\x00\x00\x00\x00\x14@'
p728
tp729
Rp730
sg35
S'(test_data["Year"]<=1977.5) & (test_data["Genre"].str.contains("Documentary")) & (test_data["Gender"] == "F")'
p731
sbasg22
g44
sg24
(lp732
g46
ag47
asg35
S'(test_data["Year"]<=1977.5) & (test_data["Genre"].str.contains("Documentary"))'
p733
sba(i__main__
Decision_Tree
p734
(dp735
g2
(lp736
(i__main__
Decision_Tree
p737
(dp738
g2
(lp739
(i__main__
Decision_Tree
p740
(dp741
g2
(lp742
(i__main__
Decision_Tree
p743
(dp744
g2
(lp745
Nasg22
g23
sg24
g25
(g29
S'\x05\x00\x00\x00\x00\x00\x00\x00'
p746
tp747
Rp748
sg35
S'(test_data["Year"]<=1977.5) & (test_data["Genre"].str.contains("Drama")) & (test_data["Age"]<=21.5) & (test_data["Occupation"]<=4.5) & (test_data["Gender"] == "M")'
p749
sba(i__main__
Decision_Tree
p750
(dp751
g2
(lp752
Nasg22
g23
sg24
g25
(g29
S'\x04\x00\x00\x00\x00\x00\x00\x00'
p753
tp754
Rp755
sg35
S'(test_data["Year"]<=1977.5) & (test_data["Genre"].str.contains("Drama")) & (test_data["Age"]<=21.5) & (test_data["Occupation"]<=4.5) & (test_data["Gender"] == "F")'
p756
sbasg22
g44
sg24
(lp757
g46
ag47
asg35
S'(test_data["Year"]<=1977.5) & (test_data["Genre"].str.contains("Drama")) & (test_data["Age"]<=21.5) & (test_data["Occupation"]<=4.5)'
p758
sba(i__main__
Decision_Tree
p759
(dp760
g2
(lp761
(i__main__
Decision_Tree
p762
(dp763
g2
(lp764
Nasg22
g23
sg24
g25
(g29
S'\x05\x00\x00\x00\x00\x00\x00\x00'
p765
tp766
Rp767
sg35
S'(test_data["Year"]<=1977.5) & (test_data["Genre"].str.contains("Drama")) & (test_data["Age"]<=21.5) & (test_data["Occupation"]>4.5) & (test_data["Gender"] == "M")'
p768
sba(i__main__
Decision_Tree
p769
(dp770
g2
(lp771
Nasg22
g23
sg24
g25
(g29
S'\x05\x00\x00\x00\x00\x00\x00\x00'
p772
tp773
Rp774
sg35
S'(test_data["Year"]<=1977.5) & (test_data["Genre"].str.contains("Drama")) & (test_data["Age"]<=21.5) & (test_data["Occupation"]>4.5) & (test_data["Gender"] == "F")'
p775
sbasg22
g44
sg24
(lp776
g46
ag47
asg35
S'(test_data["Year"]<=1977.5) & (test_data["Genre"].str.contains("Drama")) & (test_data["Age"]<=21.5) & (test_data["Occupation"]>4.5)'
p777
sbasg22
g68
sg24
g25
(g71
S'\x00\x00\x00\x00\x00\x00\x12@'
p778
tp779
Rp780
sg35
S'(test_data["Year"]<=1977.5) & (test_data["Genre"].str.contains("Drama")) & (test_data["Age"]<=21.5)'
p781
sba(i__main__
Decision_Tree
p782
(dp783
g2
(lp784
(i__main__
Decision_Tree
p785
(dp786
g2
(lp787
(i__main__
Decision_Tree
p788
(dp789
g2
(lp790
Nasg22
g23
sg24
g25
(g29
S'\x04\x00\x00\x00\x00\x00\x00\x00'
p791
tp792
Rp793
sg35
S'(test_data["Year"]<=1977.5) & (test_data["Genre"].str.contains("Drama")) & (test_data["Age"]>21.5) & (test_data["Occupation"]<=10.5) & (test_data["Gender"] == "M")'
p794
sba(i__main__
Decision_Tree
p795
(dp796
g2
(lp797
Nasg22
g23
sg24
g25
(g29
S'\x04\x00\x00\x00\x00\x00\x00\x00'
p798
tp799
Rp800
sg35
S'(test_data["Year"]<=1977.5) & (test_data["Genre"].str.contains("Drama")) & (test_data["Age"]>21.5) & (test_data["Occupation"]<=10.5) & (test_data["Gender"] == "F")'
p801
sbasg22
g44
sg24
(lp802
g46
ag47
asg35
S'(test_data["Year"]<=1977.5) & (test_data["Genre"].str.contains("Drama")) & (test_data["Age"]>21.5) & (test_data["Occupation"]<=10.5)'
p803
sba(i__main__
Decision_Tree
p804
(dp805
g2
(lp806
(i__main__
Decision_Tree
p807
(dp808
g2
(lp809
Nasg22
g23
sg24
g25
(g29
S'\x05\x00\x00\x00\x00\x00\x00\x00'
p810
tp811
Rp812
sg35
S'(test_data["Year"]<=1977.5) & (test_data["Genre"].str.contains("Drama")) & (test_data["Age"]>21.5) & (test_data["Occupation"]>10.5) & (test_data["Gender"] == "M")'
p813
sba(i__main__
Decision_Tree
p814
(dp815
g2
(lp816
Nasg22
g23
sg24
g25
(g29
S'\x04\x00\x00\x00\x00\x00\x00\x00'
p817
tp818
Rp819
sg35
S'(test_data["Year"]<=1977.5) & (test_data["Genre"].str.contains("Drama")) & (test_data["Age"]>21.5) & (test_data["Occupation"]>10.5) & (test_data["Gender"] == "F")'
p820
sbasg22
g44
sg24
(lp821
g46
ag47
asg35
S'(test_data["Year"]<=1977.5) & (test_data["Genre"].str.contains("Drama")) & (test_data["Age"]>21.5) & (test_data["Occupation"]>10.5)'
p822
sbasg22
g68
sg24
g25
(g71
S'\x00\x00\x00\x00\x00\x00%@'
p823
tp824
Rp825
sg35
S'(test_data["Year"]<=1977.5) & (test_data["Genre"].str.contains("Drama")) & (test_data["Age"]>21.5)'
p826
sbasg22
g123
sg24
g25
(g71
S'\x00\x00\x00\x00\x00\x805@'
p827
tp828
Rp829
sg35
S'(test_data["Year"]<=1977.5) & (test_data["Genre"].str.contains("Drama"))'
p830
sba(i__main__
Decision_Tree
p831
(dp832
g2
(lp833
(i__main__
Decision_Tree
p834
(dp835
g2
(lp836
(i__main__
Decision_Tree
p837
(dp838
g2
(lp839
(i__main__
Decision_Tree
p840
(dp841
g2
(lp842
Nasg22
g23
sg24
g25
(g29
S'\x05\x00\x00\x00\x00\x00\x00\x00'
p843
tp844
Rp845
sg35
S'(test_data["Year"]<=1977.5) & (test_data["Genre"].str.contains("Fantasy")) & (test_data["Gender"] == "M") & (test_data["Age"]<=30.0) & (test_data["Occupation"]<=19.5)'
p846
sba(i__main__
Decision_Tree
p847
(dp848
g2
(lp849
Nasg22
g23
sg24
g25
(g29
S'\x05\x00\x00\x00\x00\x00\x00\x00'
p850
tp851
Rp852
sg35
S'(test_data["Year"]<=1977.5) & (test_data["Genre"].str.contains("Fantasy")) & (test_data["Gender"] == "M") & (test_data["Age"]<=30.0) & (test_data["Occupation"]>19.5)'
p853
sbasg22
g68
sg24
g25
(g71
S'\x00\x00\x00\x00\x00\x803@'
p854
tp855
Rp856
sg35
S'(test_data["Year"]<=1977.5) & (test_data["Genre"].str.contains("Fantasy")) & (test_data["Gender"] == "M") & (test_data["Age"]<=30.0)'
p857
sba(i__main__
Decision_Tree
p858
(dp859
g2
(lp860
(i__main__
Decision_Tree
p861
(dp862
g2
(lp863
Nasg22
g23
sg24
g25
(g29
S'\x05\x00\x00\x00\x00\x00\x00\x00'
p864
tp865
Rp866
sg35
S'(test_data["Year"]<=1977.5) & (test_data["Genre"].str.contains("Fantasy")) & (test_data["Gender"] == "M") & (test_data["Age"]>30.0) & (test_data["Occupation"]<=11.5)'
p867
sba(i__main__
Decision_Tree
p868
(dp869
g2
(lp870
Nasg22
g23
sg24
g25
(g29
S'\x05\x00\x00\x00\x00\x00\x00\x00'
p871
tp872
Rp873
sg35
S'(test_data["Year"]<=1977.5) & (test_data["Genre"].str.contains("Fantasy")) & (test_data["Gender"] == "M") & (test_data["Age"]>30.0) & (test_data["Occupation"]>11.5)'
p874
sbasg22
g68
sg24
g25
(g71
S"\x00\x00\x00\x00\x00\x00'@"
p875
tp876
Rp877
sg35
S'(test_data["Year"]<=1977.5) & (test_data["Genre"].str.contains("Fantasy")) & (test_data["Gender"] == "M") & (test_data["Age"]>30.0)'
p878
sbasg22
g123
sg24
g25
(g71
S'\x00\x00\x00\x00\x00\x00>@'
p879
tp880
Rp881
sg35
S'(test_data["Year"]<=1977.5) & (test_data["Genre"].str.contains("Fantasy")) & (test_data["Gender"] == "M")'
p882
sba(i__main__
Decision_Tree
p883
(dp884
g2
(lp885
(i__main__
Decision_Tree
p886
(dp887
g2
(lp888
(i__main__
Decision_Tree
p889
(dp890
g2
(lp891
Nasg22
g23
sg24
g25
(g29
S'\x05\x00\x00\x00\x00\x00\x00\x00'
p892
tp893
Rp894
sg35
S'(test_data["Year"]<=1977.5) & (test_data["Genre"].str.contains("Fantasy")) & (test_data["Gender"] == "F") & (test_data["Occupation"]<=4.5) & (test_data["Age"]<=9.5)'
p895
sba(i__main__
Decision_Tree
p896
(dp897
g2
(lp898
Nasg22
g23
sg24
g25
(g29
S'\x04\x00\x00\x00\x00\x00\x00\x00'
p899
tp900
Rp901
sg35
S'(test_data["Year"]<=1977.5) & (test_data["Genre"].str.contains("Fantasy")) & (test_data["Gender"] == "F") & (test_data["Occupation"]<=4.5) & (test_data["Age"]>9.5)'
p902
sbasg22
g123
sg24
g25
(g71
S'\x00\x00\x00\x00\x00\x00#@'
p903
tp904
Rp905
sg35
S'(test_data["Year"]<=1977.5) & (test_data["Genre"].str.contains("Fantasy")) & (test_data["Gender"] == "F") & (test_data["Occupation"]<=4.5)'
p906
sba(i__main__
Decision_Tree
p907
(dp908
g2
(lp909
(i__main__
Decision_Tree
p910
(dp911
g2
(lp912
Nasg22
g23
sg24
g25
(g29
S'\x05\x00\x00\x00\x00\x00\x00\x00'
p913
tp914
Rp915
sg35
S'(test_data["Year"]<=1977.5) & (test_data["Genre"].str.contains("Fantasy")) & (test_data["Gender"] == "F") & (test_data["Occupation"]>4.5) & (test_data["Age"]<=40.0)'
p916
sba(i__main__
Decision_Tree
p917
(dp918
g2
(lp919
Nasg22
g23
sg24
g25
(g29
S'\x05\x00\x00\x00\x00\x00\x00\x00'
p920
tp921
Rp922
sg35
S'(test_data["Year"]<=1977.5) & (test_data["Genre"].str.contains("Fantasy")) & (test_data["Gender"] == "F") & (test_data["Occupation"]>4.5) & (test_data["Age"]>40.0)'
p923
sbasg22
g123
sg24
g25
(g71
S'\x00\x00\x00\x00\x00\x00D@'
p924
tp925
Rp926
sg35
S'(test_data["Year"]<=1977.5) & (test_data["Genre"].str.contains("Fantasy")) & (test_data["Gender"] == "F") & (test_data["Occupation"]>4.5)'
p927
sbasg22
g68
sg24
g25
(g71
S'\x00\x00\x00\x00\x00\x00\x12@'
p928
tp929
Rp930
sg35
S'(test_data["Year"]<=1977.5) & (test_data["Genre"].str.contains("Fantasy")) & (test_data["Gender"] == "F")'
p931
sbasg22
g44
sg24
(lp932
g46
ag47
asg35
S'(test_data["Year"]<=1977.5) & (test_data["Genre"].str.contains("Fantasy"))'
p933
sba(i__main__
Decision_Tree
p934
(dp935
g2
(lp936
(i__main__
Decision_Tree
p937
(dp938
g2
(lp939
(i__main__
Decision_Tree
p940
(dp941
g2
(lp942
(i__main__
Decision_Tree
p943
(dp944
g2
(lp945
Nasg22
g23
sg24
g25
(g29
S'\x05\x00\x00\x00\x00\x00\x00\x00'
p946
tp947
Rp948
sg35
S'(test_data["Year"]<=1977.5) & (test_data["Genre"].str.contains("Film-Noir")) & (test_data["Age"]<=21.5) & (test_data["Occupation"]<=4.5) & (test_data["Gender"] == "M")'
p949
sba(i__main__
Decision_Tree
p950
(dp951
g2
(lp952
Nasg22
g23
sg24
g25
(g29
S'\x05\x00\x00\x00\x00\x00\x00\x00'
p953
tp954
Rp955
sg35
S'(test_data["Year"]<=1977.5) & (test_data["Genre"].str.contains("Film-Noir")) & (test_data["Age"]<=21.5) & (test_data["Occupation"]<=4.5) & (test_data["Gender"] == "F")'
p956
sbasg22
g44
sg24
(lp957
g46
ag47
asg35
S'(test_data["Year"]<=1977.5) & (test_data["Genre"].str.contains("Film-Noir")) & (test_data["Age"]<=21.5) & (test_data["Occupation"]<=4.5)'
p958
sba(i__main__
Decision_Tree
p959
(dp960
g2
(lp961
(i__main__
Decision_Tree
p962
(dp963
g2
(lp964
Nasg22
g23
sg24
g25
(g29
S'\x05\x00\x00\x00\x00\x00\x00\x00'
p965
tp966
Rp967
sg35
S'(test_data["Year"]<=1977.5) & (test_data["Genre"].str.contains("Film-Noir")) & (test_data["Age"]<=21.5) & (test_data["Occupation"]>4.5) & (test_data["Gender"] == "M")'
p968
sba(i__main__
Decision_Tree
p969
(dp970
g2
(lp971
Nasg22
g23
sg24
g25
(g29
S'\x05\x00\x00\x00\x00\x00\x00\x00'
p972
tp973
Rp974
sg35
S'(test_data["Year"]<=1977.5) & (test_data["Genre"].str.contains("Film-Noir")) & (test_data["Age"]<=21.5) & (test_data["Occupation"]>4.5) & (test_data["Gender"] == "F")'
p975
sbasg22
g44
sg24
(lp976
g46
ag47
asg35
S'(test_data["Year"]<=1977.5) & (test_data["Genre"].str.contains("Film-Noir")) & (test_data["Age"]<=21.5) & (test_data["Occupation"]>4.5)'
p977
sbasg22
g68
sg24
g25
(g71
S'\x00\x00\x00\x00\x00\x00\x12@'
p978
tp979
Rp980
sg35
S'(test_data["Year"]<=1977.5) & (test_data["Genre"].str.contains("Film-Noir")) & (test_data["Age"]<=21.5)'
p981
sba(i__main__
Decision_Tree
p982
(dp983
g2
(lp984
(i__main__
Decision_Tree
p985
(dp986
g2
(lp987
(i__main__
Decision_Tree
p988
(dp989
g2
(lp990
Nasg22
g23
sg24
g25
(g29
S'\x05\x00\x00\x00\x00\x00\x00\x00'
p991
tp992
Rp993
sg35
S'(test_data["Year"]<=1977.5) & (test_data["Genre"].str.contains("Film-Noir")) & (test_data["Age"]>21.5) & (test_data["Occupation"]<=14.5) & (test_data["Gender"] == "M")'
p994
sba(i__main__
Decision_Tree
p995
(dp996
g2
(lp997
Nasg22
g23
sg24
g25
(g29
S'\x05\x00\x00\x00\x00\x00\x00\x00'
p998
tp999
Rp1000
sg35
S'(test_data["Year"]<=1977.5) & (test_data["Genre"].str.contains("Film-Noir")) & (test_data["Age"]>21.5) & (test_data["Occupation"]<=14.5) & (test_data["Gender"] == "F")'
p1001
sbasg22
g44
sg24
(lp1002
g46
ag47
asg35
S'(test_data["Year"]<=1977.5) & (test_data["Genre"].str.contains("Film-Noir")) & (test_data["Age"]>21.5) & (test_data["Occupation"]<=14.5)'
p1003
sba(i__main__
Decision_Tree
p1004
(dp1005
g2
(lp1006
(i__main__
Decision_Tree
p1007
(dp1008
g2
(lp1009
Nasg22
g23
sg24
g25
(g29
S'\x05\x00\x00\x00\x00\x00\x00\x00'
p1010
tp1011
Rp1012
sg35
S'(test_data["Year"]<=1977.5) & (test_data["Genre"].str.contains("Film-Noir")) & (test_data["Age"]>21.5) & (test_data["Occupation"]>14.5) & (test_data["Gender"] == "M")'
p1013
sba(i__main__
Decision_Tree
p1014
(dp1015
g2
(lp1016
Nasg22
g23
sg24
g25
(g29
S'\x05\x00\x00\x00\x00\x00\x00\x00'
p1017
tp1018
Rp1019
sg35
S'(test_data["Year"]<=1977.5) & (test_data["Genre"].str.contains("Film-Noir")) & (test_data["Age"]>21.5) & (test_data["Occupation"]>14.5) & (test_data["Gender"] == "F")'
p1020
sbasg22
g44
sg24
(lp1021
g46
ag47
asg35
S'(test_data["Year"]<=1977.5) & (test_data["Genre"].str.contains("Film-Noir")) & (test_data["Age"]>21.5) & (test_data["Occupation"]>14.5)'
p1022
sbasg22
g68
sg24
g25
(g71
S'\x00\x00\x00\x00\x00\x00-@'
p1023
tp1024
Rp1025
sg35
S'(test_data["Year"]<=1977.5) & (test_data["Genre"].str.contains("Film-Noir")) & (test_data["Age"]>21.5)'
p1026
sbasg22
g123
sg24
g25
(g71
S'\x00\x00\x00\x00\x00\x805@'
p1027
tp1028
Rp1029
sg35
S'(test_data["Year"]<=1977.5) & (test_data["Genre"].str.contains("Film-Noir"))'
p1030
sba(i__main__
Decision_Tree
p1031
(dp1032
g2
(lp1033
(i__main__
Decision_Tree
p1034
(dp1035
g2
(lp1036
(i__main__
Decision_Tree
p1037
(dp1038
g2
(lp1039
(i__main__
Decision_Tree
p1040
(dp1041
g2
(lp1042
Nasg22
g23
sg24
g25
(g29
S'\x04\x00\x00\x00\x00\x00\x00\x00'
p1043
tp1044
Rp1045
sg35
S'(test_data["Year"]<=1977.5) & (test_data["Genre"].str.contains("Horror")) & (test_data["Age"]<=47.5) & (test_data["Occupation"]<=11.5) & (test_data["Gender"] == "M")'
p1046
sba(i__main__
Decision_Tree
p1047
(dp1048
g2
(lp1049
Nasg22
g23
sg24
g25
(g29
S'\x04\x00\x00\x00\x00\x00\x00\x00'
p1050
tp1051
Rp1052
sg35
S'(test_data["Year"]<=1977.5) & (test_data["Genre"].str.contains("Horror")) & (test_data["Age"]<=47.5) & (test_data["Occupation"]<=11.5) & (test_data["Gender"] == "F")'
p1053
sbasg22
g44
sg24
(lp1054
g46
ag47
asg35
S'(test_data["Year"]<=1977.5) & (test_data["Genre"].str.contains("Horror")) & (test_data["Age"]<=47.5) & (test_data["Occupation"]<=11.5)'
p1055
sba(i__main__
Decision_Tree
p1056
(dp1057
g2
(lp1058
(i__main__
Decision_Tree
p1059
(dp1060
g2
(lp1061
Nasg22
g23
sg24
g25
(g29
S'\x04\x00\x00\x00\x00\x00\x00\x00'
p1062
tp1063
Rp1064
sg35
S'(test_data["Year"]<=1977.5) & (test_data["Genre"].str.contains("Horror")) & (test_data["Age"]<=47.5) & (test_data["Occupation"]>11.5) & (test_data["Gender"] == "M")'
p1065
sba(i__main__
Decision_Tree
p1066
(dp1067
g2
(lp1068
Nasg22
g23
sg24
g25
(g29
S'\x04\x00\x00\x00\x00\x00\x00\x00'
p1069
tp1070
Rp1071
sg35
S'(test_data["Year"]<=1977.5) & (test_data["Genre"].str.contains("Horror")) & (test_data["Age"]<=47.5) & (test_data["Occupation"]>11.5) & (test_data["Gender"] == "F")'
p1072
sbasg22
g44
sg24
(lp1073
g46
ag47
asg35
S'(test_data["Year"]<=1977.5) & (test_data["Genre"].str.contains("Horror")) & (test_data["Age"]<=47.5) & (test_data["Occupation"]>11.5)'
p1074
sbasg22
g68
sg24
g25
(g71
S"\x00\x00\x00\x00\x00\x00'@"
p1075
tp1076
Rp1077
sg35
S'(test_data["Year"]<=1977.5) & (test_data["Genre"].str.contains("Horror")) & (test_data["Age"]<=47.5)'
p1078
sba(i__main__
Decision_Tree
p1079
(dp1080
g2
(lp1081
(i__main__
Decision_Tree
p1082
(dp1083
g2
(lp1084
(i__main__
Decision_Tree
p1085
(dp1086
g2
(lp1087
Nasg22
g23
sg24
g25
(g29
S'\x04\x00\x00\x00\x00\x00\x00\x00'
p1088
tp1089
Rp1090
sg35
S'(test_data["Year"]<=1977.5) & (test_data["Genre"].str.contains("Horror")) & (test_data["Age"]>47.5) & (test_data["Gender"] == "M") & (test_data["Occupation"]<=0.5)'
p1091
sba(i__main__
Decision_Tree
p1092
(dp1093
g2
(lp1094
Nasg22
g23
sg24
g25
(g29
S'\x05\x00\x00\x00\x00\x00\x00\x00'
p1095
tp1096
Rp1097
sg35
S'(test_data["Year"]<=1977.5) & (test_data["Genre"].str.contains("Horror")) & (test_data["Age"]>47.5) & (test_data["Gender"] == "M") & (test_data["Occupation"]>0.5)'
p1098
sbasg22
g68
sg24
g25
(g71
S'\x00\x00\x00\x00\x00\x00\xe0?'
p1099
tp1100
Rp1101
sg35
S'(test_data["Year"]<=1977.5) & (test_data["Genre"].str.contains("Horror")) & (test_data["Age"]>47.5) & (test_data["Gender"] == "M")'
p1102
sba(i__main__
Decision_Tree
p1103
(dp1104
g2
(lp1105
(i__main__
Decision_Tree
p1106
(dp1107
g2
(lp1108
Nasg22
g23
sg24
g25
(g29
S'\x04\x00\x00\x00\x00\x00\x00\x00'
p1109
tp1110
Rp1111
sg35
S'(test_data["Year"]<=1977.5) & (test_data["Genre"].str.contains("Horror")) & (test_data["Age"]>47.5) & (test_data["Gender"] == "F") & (test_data["Occupation"]<=13.5)'
p1112
sba(i__main__
Decision_Tree
p1113
(dp1114
g2
(lp1115
Nasg22
g23
sg24
g25
(g29
S'\x03\x00\x00\x00\x00\x00\x00\x00'
p1116
tp1117
Rp1118
sg35
S'(test_data["Year"]<=1977.5) & (test_data["Genre"].str.contains("Horror")) & (test_data["Age"]>47.5) & (test_data["Gender"] == "F") & (test_data["Occupation"]>13.5)'
p1119
sbasg22
g68
sg24
g25
(g71
S'\x00\x00\x00\x00\x00\x00+@'
p1120
tp1121
Rp1122
sg35
S'(test_data["Year"]<=1977.5) & (test_data["Genre"].str.contains("Horror")) & (test_data["Age"]>47.5) & (test_data["Gender"] == "F")'
p1123
sbasg22
g44
sg24
(lp1124
g46
ag47
asg35
S'(test_data["Year"]<=1977.5) & (test_data["Genre"].str.contains("Horror")) & (test_data["Age"]>47.5)'
p1125
sbasg22
g123
sg24
g25
(g71
S'\x00\x00\x00\x00\x00\xc0G@'
p1126
tp1127
Rp1128
sg35
S'(test_data["Year"]<=1977.5) & (test_data["Genre"].str.contains("Horror"))'
p1129
sba(i__main__
Decision_Tree
p1130
(dp1131
g2
(lp1132
(i__main__
Decision_Tree
p1133
(dp1134
g2
(lp1135
(i__main__
Decision_Tree
p1136
(dp1137
g2
(lp1138
(i__main__
Decision_Tree
p1139
(dp1140
g2
(lp1141
Nasg22
g23
sg24
g25
(g29
S'\x04\x00\x00\x00\x00\x00\x00\x00'
p1142
tp1143
Rp1144
sg35
S'(test_data["Year"]<=1977.5) & (test_data["Genre"].str.contains("Musical")) & (test_data["Gender"] == "M") & (test_data["Age"]<=21.5) & (test_data["Occupation"]<=5.5)'
p1145
sba(i__main__
Decision_Tree
p1146
(dp1147
g2
(lp1148
Nasg22
g23
sg24
g25
(g29
S'\x04\x00\x00\x00\x00\x00\x00\x00'
p1149
tp1150
Rp1151
sg35
S'(test_data["Year"]<=1977.5) & (test_data["Genre"].str.contains("Musical")) & (test_data["Gender"] == "M") & (test_data["Age"]<=21.5) & (test_data["Occupation"]>5.5)'
p1152
sbasg22
g68
sg24
g25
(g71
S'\x00\x00\x00\x00\x00\x00\x16@'
p1153
tp1154
Rp1155
sg35
S'(test_data["Year"]<=1977.5) & (test_data["Genre"].str.contains("Musical")) & (test_data["Gender"] == "M") & (test_data["Age"]<=21.5)'
p1156
sba(i__main__
Decision_Tree
p1157
(dp1158
g2
(lp1159
(i__main__
Decision_Tree
p1160
(dp1161
g2
(lp1162
Nasg22
g23
sg24
g25
(g29
S'\x04\x00\x00\x00\x00\x00\x00\x00'
p1163
tp1164
Rp1165
sg35
S'(test_data["Year"]<=1977.5) & (test_data["Genre"].str.contains("Musical")) & (test_data["Gender"] == "M") & (test_data["Age"]>21.5) & (test_data["Occupation"]<=5.5)'
p1166
sba(i__main__
Decision_Tree
p1167
(dp1168
g2
(lp1169
Nasg22
g23
sg24
g25
(g29
S'\x04\x00\x00\x00\x00\x00\x00\x00'
p1170
tp1171
Rp1172
sg35
S'(test_data["Year"]<=1977.5) & (test_data["Genre"].str.contains("Musical")) & (test_data["Gender"] == "M") & (test_data["Age"]>21.5) & (test_data["Occupation"]>5.5)'
p1173
sbasg22
g68
sg24
g25
(g71
S'\x00\x00\x00\x00\x00\x00\x16@'
p1174
tp1175
Rp1176
sg35
S'(test_data["Year"]<=1977.5) & (test_data["Genre"].str.contains("Musical")) & (test_data["Gender"] == "M") & (test_data["Age"]>21.5)'
p1177
sbasg22
g123
sg24
g25
(g71
S'\x00\x00\x00\x00\x00\x805@'
p1178
tp1179
Rp1180
sg35
S'(test_data["Year"]<=1977.5) & (test_data["Genre"].str.contains("Musical")) & (test_data["Gender"] == "M")'
p1181
sba(i__main__
Decision_Tree
p1182
(dp1183
g2
(lp1184
(i__main__
Decision_Tree
p1185
(dp1186
g2
(lp1187
(i__main__
Decision_Tree
p1188
(dp1189
g2
(lp1190
Nasg22
g23
sg24
g25
(g29
S'\x04\x00\x00\x00\x00\x00\x00\x00'
p1191
tp1192
Rp1193
sg35
S'(test_data["Year"]<=1977.5) & (test_data["Genre"].str.contains("Musical")) & (test_data["Gender"] == "F") & (test_data["Age"]<=21.5) & (test_data["Occupation"]<=16.0)'
p1194
sba(i__main__
Decision_Tree
p1195
(dp1196
g2
(lp1197
Nasg22
g23
sg24
g25
(g29
S'\x05\x00\x00\x00\x00\x00\x00\x00'
p1198
tp1199
Rp1200
sg35
S'(test_data["Year"]<=1977.5) & (test_data["Genre"].str.contains("Musical")) & (test_data["Gender"] == "F") & (test_data["Age"]<=21.5) & (test_data["Occupation"]>16.0)'
p1201
sbasg22
g68
sg24
g25
(g71
S'\x00\x00\x00\x00\x00\x000@'
p1202
tp1203
Rp1204
sg35
S'(test_data["Year"]<=1977.5) & (test_data["Genre"].str.contains("Musical")) & (test_data["Gender"] == "F") & (test_data["Age"]<=21.5)'
p1205
sba(i__main__
Decision_Tree
p1206
(dp1207
g2
(lp1208
(i__main__
Decision_Tree
p1209
(dp1210
g2
(lp1211
Nasg22
g23
sg24
g25
(g29
S'\x04\x00\x00\x00\x00\x00\x00\x00'
p1212
tp1213
Rp1214
sg35
S'(test_data["Year"]<=1977.5) & (test_data["Genre"].str.contains("Musical")) & (test_data["Gender"] == "F") & (test_data["Age"]>21.5) & (test_data["Occupation"]<=1.5)'
p1215
sba(i__main__
Decision_Tree
p1216
(dp1217
g2
(lp1218
Nasg22
g23
sg24
g25
(g29
S'\x04\x00\x00\x00\x00\x00\x00\x00'
p1219
tp1220
Rp1221
sg35
S'(test_data["Year"]<=1977.5) & (test_data["Genre"].str.contains("Musical")) & (test_data["Gender"] == "F") & (test_data["Age"]>21.5) & (test_data["Occupation"]>1.5)'
p1222
sbasg22
g68
sg24
g25
(g71
S'\x00\x00\x00\x00\x00\x00\xf8?'
p1223
tp1224
Rp1225
sg35
S'(test_data["Year"]<=1977.5) & (test_data["Genre"].str.contains("Musical")) & (test_data["Gender"] == "F") & (test_data["Age"]>21.5)'
p1226
sbasg22
g123
sg24
g25
(g71
S'\x00\x00\x00\x00\x00\x805@'
p1227
tp1228
Rp1229
sg35
S'(test_data["Year"]<=1977.5) & (test_data["Genre"].str.contains("Musical")) & (test_data["Gender"] == "F")'
p1230
sbasg22
g44
sg24
(lp1231
g46
ag47
asg35
S'(test_data["Year"]<=1977.5) & (test_data["Genre"].str.contains("Musical"))'
p1232
sba(i__main__
Decision_Tree
p1233
(dp1234
g2
(lp1235
(i__main__
Decision_Tree
p1236
(dp1237
g2
(lp1238
(i__main__
Decision_Tree
p1239
(dp1240
g2
(lp1241
(i__main__
Decision_Tree
p1242
(dp1243
g2
(lp1244
Nasg22
g23
sg24
g25
(g29
S'\x05\x00\x00\x00\x00\x00\x00\x00'
p1245
tp1246
Rp1247
sg35
S'(test_data["Year"]<=1977.5) & (test_data["Genre"].str.contains("Mystery")) & (test_data["Age"]<=21.5) & (test_data["Occupation"]<=4.5) & (test_data["Gender"] == "M")'
p1248
sba(i__main__
Decision_Tree
p1249
(dp1250
g2
(lp1251
Nasg22
g23
sg24
g25
(g29
S'\x05\x00\x00\x00\x00\x00\x00\x00'
p1252
tp1253
Rp1254
sg35
S'(test_data["Year"]<=1977.5) & (test_data["Genre"].str.contains("Mystery")) & (test_data["Age"]<=21.5) & (test_data["Occupation"]<=4.5) & (test_data["Gender"] == "F")'
p1255
sbasg22
g44
sg24
(lp1256
g46
ag47
asg35
S'(test_data["Year"]<=1977.5) & (test_data["Genre"].str.contains("Mystery")) & (test_data["Age"]<=21.5) & (test_data["Occupation"]<=4.5)'
p1257
sba(i__main__
Decision_Tree
p1258
(dp1259
g2
(lp1260
(i__main__
Decision_Tree
p1261
(dp1262
g2
(lp1263
Nasg22
g23
sg24
g25
(g29
S'\x05\x00\x00\x00\x00\x00\x00\x00'
p1264
tp1265
Rp1266
sg35
S'(test_data["Year"]<=1977.5) & (test_data["Genre"].str.contains("Mystery")) & (test_data["Age"]<=21.5) & (test_data["Occupation"]>4.5) & (test_data["Gender"] == "M")'
p1267
sba(i__main__
Decision_Tree
p1268
(dp1269
g2
(lp1270
Nasg22
g23
sg24
g25
(g29
S'\x05\x00\x00\x00\x00\x00\x00\x00'
p1271
tp1272
Rp1273
sg35
S'(test_data["Year"]<=1977.5) & (test_data["Genre"].str.contains("Mystery")) & (test_data["Age"]<=21.5) & (test_data["Occupation"]>4.5) & (test_data["Gender"] == "F")'
p1274
sbasg22
g44
sg24
(lp1275
g46
ag47
asg35
S'(test_data["Year"]<=1977.5) & (test_data["Genre"].str.contains("Mystery")) & (test_data["Age"]<=21.5) & (test_data["Occupation"]>4.5)'
p1276
sbasg22
g68
sg24
g25
(g71
S'\x00\x00\x00\x00\x00\x00\x12@'
p1277
tp1278
Rp1279
sg35
S'(test_data["Year"]<=1977.5) & (test_data["Genre"].str.contains("Mystery")) & (test_data["Age"]<=21.5)'
p1280
sba(i__main__
Decision_Tree
p1281
(dp1282
g2
(lp1283
(i__main__
Decision_Tree
p1284
(dp1285
g2
(lp1286
(i__main__
Decision_Tree
p1287
(dp1288
g2
(lp1289
Nasg22
g23
sg24
g25
(g29
S'\x05\x00\x00\x00\x00\x00\x00\x00'
p1290
tp1291
Rp1292
sg35
S'(test_data["Year"]<=1977.5) & (test_data["Genre"].str.contains("Mystery")) & (test_data["Age"]>21.5) & (test_data["Occupation"]<=1.5) & (test_data["Gender"] == "M")'
p1293
sba(i__main__
Decision_Tree
p1294
(dp1295
g2
(lp1296
Nasg22
g23
sg24
g25
(g29
S'\x05\x00\x00\x00\x00\x00\x00\x00'
p1297
tp1298
Rp1299
sg35
S'(test_data["Year"]<=1977.5) & (test_data["Genre"].str.contains("Mystery")) & (test_data["Age"]>21.5) & (test_data["Occupation"]<=1.5) & (test_data["Gender"] == "F")'
p1300
sbasg22
g44
sg24
(lp1301
g46
ag47
asg35
S'(test_data["Year"]<=1977.5) & (test_data["Genre"].str.contains("Mystery")) & (test_data["Age"]>21.5) & (test_data["Occupation"]<=1.5)'
p1302
sba(i__main__
Decision_Tree
p1303
(dp1304
g2
(lp1305
(i__main__
Decision_Tree
p1306
(dp1307
g2
(lp1308
Nasg22
g23
sg24
g25
(g29
S'\x05\x00\x00\x00\x00\x00\x00\x00'
p1309
tp1310
Rp1311
sg35
S'(test_data["Year"]<=1977.5) & (test_data["Genre"].str.contains("Mystery")) & (test_data["Age"]>21.5) & (test_data["Occupation"]>1.5) & (test_data["Gender"] == "M")'
p1312
sba(i__main__
Decision_Tree
p1313
(dp1314
g2
(lp1315
Nasg22
g23
sg24
g25
(g29
S'\x05\x00\x00\x00\x00\x00\x00\x00'
p1316
tp1317
Rp1318
sg35
S'(test_data["Year"]<=1977.5) & (test_data["Genre"].str.contains("Mystery")) & (test_data["Age"]>21.5) & (test_data["Occupation"]>1.5) & (test_data["Gender"] == "F")'
p1319
sbasg22
g44
sg24
(lp1320
g46
ag47
asg35
S'(test_data["Year"]<=1977.5) & (test_data["Genre"].str.contains("Mystery")) & (test_data["Age"]>21.5) & (test_data["Occupation"]>1.5)'
p1321
sbasg22
g68
sg24
g25
(g71
S'\x00\x00\x00\x00\x00\x00\xf8?'
p1322
tp1323
Rp1324
sg35
S'(test_data["Year"]<=1977.5) & (test_data["Genre"].str.contains("Mystery")) & (test_data["Age"]>21.5)'
p1325
sbasg22
g123
sg24
g25
(g71
S'\x00\x00\x00\x00\x00\x805@'
p1326
tp1327
Rp1328
sg35
S'(test_data["Year"]<=1977.5) & (test_data["Genre"].str.contains("Mystery"))'
p1329
sba(i__main__
Decision_Tree
p1330
(dp1331
g2
(lp1332
(i__main__
Decision_Tree
p1333
(dp1334
g2
(lp1335
(i__main__
Decision_Tree
p1336
(dp1337
g2
(lp1338
(i__main__
Decision_Tree
p1339
(dp1340
g2
(lp1341
Nasg22
g23
sg24
g25
(g29
S'\x05\x00\x00\x00\x00\x00\x00\x00'
p1342
tp1343
Rp1344
sg35
S'(test_data["Year"]<=1977.5) & (test_data["Genre"].str.contains("Romance")) & (test_data["Gender"] == "M") & (test_data["Age"]<=21.5) & (test_data["Occupation"]<=6.5)'
p1345
sba(i__main__
Decision_Tree
p1346
(dp1347
g2
(lp1348
Nasg22
g23
sg24
g25
(g29
S'\x05\x00\x00\x00\x00\x00\x00\x00'
p1349
tp1350
Rp1351
sg35
S'(test_data["Year"]<=1977.5) & (test_data["Genre"].str.contains("Romance")) & (test_data["Gender"] == "M") & (test_data["Age"]<=21.5) & (test_data["Occupation"]>6.5)'
p1352
sbasg22
g68
sg24
g25
(g71
S'\x00\x00\x00\x00\x00\x00\x1a@'
p1353
tp1354
Rp1355
sg35
S'(test_data["Year"]<=1977.5) & (test_data["Genre"].str.contains("Romance")) & (test_data["Gender"] == "M") & (test_data["Age"]<=21.5)'
p1356
sba(i__main__
Decision_Tree
p1357
(dp1358
g2
(lp1359
(i__main__
Decision_Tree
p1360
(dp1361
g2
(lp1362
Nasg22
g23
sg24
g25
(g29
S'\x04\x00\x00\x00\x00\x00\x00\x00'
p1363
tp1364
Rp1365
sg35
S'(test_data["Year"]<=1977.5) & (test_data["Genre"].str.contains("Romance")) & (test_data["Gender"] == "M") & (test_data["Age"]>21.5) & (test_data["Occupation"]<=6.5)'
p1366
sba(i__main__
Decision_Tree
p1367
(dp1368
g2
(lp1369
Nasg22
g23
sg24
g25
(g29
S'\x04\x00\x00\x00\x00\x00\x00\x00'
p1370
tp1371
Rp1372
sg35
S'(test_data["Year"]<=1977.5) & (test_data["Genre"].str.contains("Romance")) & (test_data["Gender"] == "M") & (test_data["Age"]>21.5) & (test_data["Occupation"]>6.5)'
p1373
sbasg22
g68
sg24
g25
(g71
S'\x00\x00\x00\x00\x00\x00\x1a@'
p1374
tp1375
Rp1376
sg35
S'(test_data["Year"]<=1977.5) & (test_data["Genre"].str.contains("Romance")) & (test_data["Gender"] == "M") & (test_data["Age"]>21.5)'
p1377
sbasg22
g123
sg24
g25
(g71
S'\x00\x00\x00\x00\x00\x805@'
p1378
tp1379
Rp1380
sg35
S'(test_data["Year"]<=1977.5) & (test_data["Genre"].str.contains("Romance")) & (test_data["Gender"] == "M")'
p1381
sba(i__main__
Decision_Tree
p1382
(dp1383
g2
(lp1384
(i__main__
Decision_Tree
p1385
(dp1386
g2
(lp1387
(i__main__
Decision_Tree
p1388
(dp1389
g2
(lp1390
Nasg22
g23
sg24
g25
(g29
S'\x04\x00\x00\x00\x00\x00\x00\x00'
p1391
tp1392
Rp1393
sg35
S'(test_data["Year"]<=1977.5) & (test_data["Genre"].str.contains("Romance")) & (test_data["Gender"] == "F") & (test_data["Age"]<=53.0) & (test_data["Occupation"]<=17.5)'
p1394
sba(i__main__
Decision_Tree
p1395
(dp1396
g2
(lp1397
Nasg22
g23
sg24
g25
(g29
S'\x05\x00\x00\x00\x00\x00\x00\x00'
p1398
tp1399
Rp1400
sg35
S'(test_data["Year"]<=1977.5) & (test_data["Genre"].str.contains("Romance")) & (test_data["Gender"] == "F") & (test_data["Age"]<=53.0) & (test_data["Occupation"]>17.5)'
p1401
sbasg22
g68
sg24
g25
(g71
S'\x00\x00\x00\x00\x00\x801@'
p1402
tp1403
Rp1404
sg35
S'(test_data["Year"]<=1977.5) & (test_data["Genre"].str.contains("Romance")) & (test_data["Gender"] == "F") & (test_data["Age"]<=53.0)'
p1405
sba(i__main__
Decision_Tree
p1406
(dp1407
g2
(lp1408
(i__main__
Decision_Tree
p1409
(dp1410
g2
(lp1411
Nasg22
g23
sg24
g25
(g29
S'\x05\x00\x00\x00\x00\x00\x00\x00'
p1412
tp1413
Rp1414
sg35
S'(test_data["Year"]<=1977.5) & (test_data["Genre"].str.contains("Romance")) & (test_data["Gender"] == "F") & (test_data["Age"]>53.0) & (test_data["Occupation"]<=18.0)'
p1415
sba(i__main__
Decision_Tree
p1416
(dp1417
g2
(lp1418
Nasg22
g23
sg24
g25
(g29
S'\x05\x00\x00\x00\x00\x00\x00\x00'
p1419
tp1420
Rp1421
sg35
S'(test_data["Year"]<=1977.5) & (test_data["Genre"].str.contains("Romance")) & (test_data["Gender"] == "F") & (test_data["Age"]>53.0) & (test_data["Occupation"]>18.0)'
p1422
sbasg22
g68
sg24
g25
(g71
S'\x00\x00\x00\x00\x00\x002@'
p1423
tp1424
Rp1425
sg35
S'(test_data["Year"]<=1977.5) & (test_data["Genre"].str.contains("Romance")) & (test_data["Gender"] == "F") & (test_data["Age"]>53.0)'
p1426
sbasg22
g123
sg24
g25
(g71
S'\x00\x00\x00\x00\x00\x80J@'
p1427
tp1428
Rp1429
sg35
S'(test_data["Year"]<=1977.5) & (test_data["Genre"].str.contains("Romance")) & (test_data["Gender"] == "F")'
p1430
sbasg22
g44
sg24
(lp1431
g46
ag47
asg35
S'(test_data["Year"]<=1977.5) & (test_data["Genre"].str.contains("Romance"))'
p1432
sba(i__main__
Decision_Tree
p1433
(dp1434
g2
(lp1435
(i__main__
Decision_Tree
p1436
(dp1437
g2
(lp1438
(i__main__
Decision_Tree
p1439
(dp1440
g2
(lp1441
(i__main__
Decision_Tree
p1442
(dp1443
g2
(lp1444
Nasg22
g23
sg24
g25
(g29
S'\x05\x00\x00\x00\x00\x00\x00\x00'
p1445
tp1446
Rp1447
sg35
S'(test_data["Year"]<=1977.5) & (test_data["Genre"].str.contains("Sci-Fi")) & (test_data["Age"]<=21.5) & (test_data["Occupation"]<=16.5) & (test_data["Gender"] == "M")'
p1448
sba(i__main__
Decision_Tree
p1449
(dp1450
g2
(lp1451
Nasg22
g23
sg24
g25
(g29
S'\x04\x00\x00\x00\x00\x00\x00\x00'
p1452
tp1453
Rp1454
sg35
S'(test_data["Year"]<=1977.5) & (test_data["Genre"].str.contains("Sci-Fi")) & (test_data["Age"]<=21.5) & (test_data["Occupation"]<=16.5) & (test_data["Gender"] == "F")'
p1455
sbasg22
g44
sg24
(lp1456
g46
ag47
asg35
S'(test_data["Year"]<=1977.5) & (test_data["Genre"].str.contains("Sci-Fi")) & (test_data["Age"]<=21.5) & (test_data["Occupation"]<=16.5)'
p1457
sba(i__main__
Decision_Tree
p1458
(dp1459
g2
(lp1460
(i__main__
Decision_Tree
p1461
(dp1462
g2
(lp1463
Nasg22
g23
sg24
g25
(g29
S'\x05\x00\x00\x00\x00\x00\x00\x00'
p1464
tp1465
Rp1466
sg35
S'(test_data["Year"]<=1977.5) & (test_data["Genre"].str.contains("Sci-Fi")) & (test_data["Age"]<=21.5) & (test_data["Occupation"]>16.5) & (test_data["Gender"] == "M")'
p1467
sba(i__main__
Decision_Tree
p1468
(dp1469
g2
(lp1470
Nasg22
g23
sg24
g25
(g29
S'\x05\x00\x00\x00\x00\x00\x00\x00'
p1471
tp1472
Rp1473
sg35
S'(test_data["Year"]<=1977.5) & (test_data["Genre"].str.contains("Sci-Fi")) & (test_data["Age"]<=21.5) & (test_data["Occupation"]>16.5) & (test_data["Gender"] == "F")'
p1474
sbasg22
g44
sg24
(lp1475
g46
ag47
asg35
S'(test_data["Year"]<=1977.5) & (test_data["Genre"].str.contains("Sci-Fi")) & (test_data["Age"]<=21.5) & (test_data["Occupation"]>16.5)'
p1476
sbasg22
g68
sg24
g25
(g71
S'\x00\x00\x00\x00\x00\x800@'
p1477
tp1478
Rp1479
sg35
S'(test_data["Year"]<=1977.5) & (test_data["Genre"].str.contains("Sci-Fi")) & (test_data["Age"]<=21.5)'
p1480
sba(i__main__
Decision_Tree
p1481
(dp1482
g2
(lp1483
(i__main__
Decision_Tree
p1484
(dp1485
g2
(lp1486
(i__main__
Decision_Tree
p1487
(dp1488
g2
(lp1489
Nasg22
g23
sg24
g25
(g29
S'\x04\x00\x00\x00\x00\x00\x00\x00'
p1490
tp1491
Rp1492
sg35
S'(test_data["Year"]<=1977.5) & (test_data["Genre"].str.contains("Sci-Fi")) & (test_data["Age"]>21.5) & (test_data["Occupation"]<=6.5) & (test_data["Gender"] == "M")'
p1493
sba(i__main__
Decision_Tree
p1494
(dp1495
g2
(lp1496
Nasg22
g23
sg24
g25
(g29
S'\x05\x00\x00\x00\x00\x00\x00\x00'
p1497
tp1498
Rp1499
sg35
S'(test_data["Year"]<=1977.5) & (test_data["Genre"].str.contains("Sci-Fi")) & (test_data["Age"]>21.5) & (test_data["Occupation"]<=6.5) & (test_data["Gender"] == "F")'
p1500
sbasg22
g44
sg24
(lp1501
g46
ag47
asg35
S'(test_data["Year"]<=1977.5) & (test_data["Genre"].str.contains("Sci-Fi")) & (test_data["Age"]>21.5) & (test_data["Occupation"]<=6.5)'
p1502
sba(i__main__
Decision_Tree
p1503
(dp1504
g2
(lp1505
(i__main__
Decision_Tree
p1506
(dp1507
g2
(lp1508
Nasg22
g23
sg24
g25
(g29
S'\x04\x00\x00\x00\x00\x00\x00\x00'
p1509
tp1510
Rp1511
sg35
S'(test_data["Year"]<=1977.5) & (test_data["Genre"].str.contains("Sci-Fi")) & (test_data["Age"]>21.5) & (test_data["Occupation"]>6.5) & (test_data["Gender"] == "M")'
p1512
sba(i__main__
Decision_Tree
p1513
(dp1514
g2
(lp1515
Nasg22
g23
sg24
g25
(g29
S'\x05\x00\x00\x00\x00\x00\x00\x00'
p1516
tp1517
Rp1518
sg35
S'(test_data["Year"]<=1977.5) & (test_data["Genre"].str.contains("Sci-Fi")) & (test_data["Age"]>21.5) & (test_data["Occupation"]>6.5) & (test_data["Gender"] == "F")'
p1519
sbasg22
g44
sg24
(lp1520
g46
ag47
asg35
S'(test_data["Year"]<=1977.5) & (test_data["Genre"].str.contains("Sci-Fi")) & (test_data["Age"]>21.5) & (test_data["Occupation"]>6.5)'
p1521
sbasg22
g68
sg24
g25
(g71
S'\x00\x00\x00\x00\x00\x00\x1a@'
p1522
tp1523
Rp1524
sg35
S'(test_data["Year"]<=1977.5) & (test_data["Genre"].str.contains("Sci-Fi")) & (test_data["Age"]>21.5)'
p1525
sbasg22
g123
sg24
g25
(g71
S'\x00\x00\x00\x00\x00\x805@'
p1526
tp1527
Rp1528
sg35
S'(test_data["Year"]<=1977.5) & (test_data["Genre"].str.contains("Sci-Fi"))'
p1529
sba(i__main__
Decision_Tree
p1530
(dp1531
g2
(lp1532
(i__main__
Decision_Tree
p1533
(dp1534
g2
(lp1535
(i__main__
Decision_Tree
p1536
(dp1537
g2
(lp1538
(i__main__
Decision_Tree
p1539
(dp1540
g2
(lp1541
Nasg22
g23
sg24
g25
(g29
S'\x05\x00\x00\x00\x00\x00\x00\x00'
p1542
tp1543
Rp1544
sg35
S'(test_data["Year"]<=1977.5) & (test_data["Genre"].str.contains("Thriller")) & (test_data["Age"]<=21.5) & (test_data["Occupation"]<=5.5) & (test_data["Gender"] == "M")'
p1545
sba(i__main__
Decision_Tree
p1546
(dp1547
g2
(lp1548
Nasg22
g23
sg24
g25
(g29
S'\x04\x00\x00\x00\x00\x00\x00\x00'
p1549
tp1550
Rp1551
sg35
S'(test_data["Year"]<=1977.5) & (test_data["Genre"].str.contains("Thriller")) & (test_data["Age"]<=21.5) & (test_data["Occupation"]<=5.5) & (test_data["Gender"] == "F")'
p1552
sbasg22
g44
sg24
(lp1553
g46
ag47
asg35
S'(test_data["Year"]<=1977.5) & (test_data["Genre"].str.contains("Thriller")) & (test_data["Age"]<=21.5) & (test_data["Occupation"]<=5.5)'
p1554
sba(i__main__
Decision_Tree
p1555
(dp1556
g2
(lp1557
(i__main__
Decision_Tree
p1558
(dp1559
g2
(lp1560
Nasg22
g23
sg24
g25
(g29
S'\x05\x00\x00\x00\x00\x00\x00\x00'
p1561
tp1562
Rp1563
sg35
S'(test_data["Year"]<=1977.5) & (test_data["Genre"].str.contains("Thriller")) & (test_data["Age"]<=21.5) & (test_data["Occupation"]>5.5) & (test_data["Gender"] == "M")'
p1564
sba(i__main__
Decision_Tree
p1565
(dp1566
g2
(lp1567
Nasg22
g23
sg24
g25
(g29
S'\x05\x00\x00\x00\x00\x00\x00\x00'
p1568
tp1569
Rp1570
sg35
S'(test_data["Year"]<=1977.5) & (test_data["Genre"].str.contains("Thriller")) & (test_data["Age"]<=21.5) & (test_data["Occupation"]>5.5) & (test_data["Gender"] == "F")'
p1571
sbasg22
g44
sg24
(lp1572
g46
ag47
asg35
S'(test_data["Year"]<=1977.5) & (test_data["Genre"].str.contains("Thriller")) & (test_data["Age"]<=21.5) & (test_data["Occupation"]>5.5)'
p1573
sbasg22
g68
sg24
g25
(g71
S'\x00\x00\x00\x00\x00\x00\x16@'
p1574
tp1575
Rp1576
sg35
S'(test_data["Year"]<=1977.5) & (test_data["Genre"].str.contains("Thriller")) & (test_data["Age"]<=21.5)'
p1577
sba(i__main__
Decision_Tree
p1578
(dp1579
g2
(lp1580
(i__main__
Decision_Tree
p1581
(dp1582
g2
(lp1583
(i__main__
Decision_Tree
p1584
(dp1585
g2
(lp1586
Nasg22
g23
sg24
g25
(g29
S'\x04\x00\x00\x00\x00\x00\x00\x00'
p1587
tp1588
Rp1589
sg35
S'(test_data["Year"]<=1977.5) & (test_data["Genre"].str.contains("Thriller")) & (test_data["Age"]>21.5) & (test_data["Occupation"]<=19.5) & (test_data["Gender"] == "M")'
p1590
sba(i__main__
Decision_Tree
p1591
(dp1592
g2
(lp1593
Nasg22
g23
sg24
g25
(g29
S'\x05\x00\x00\x00\x00\x00\x00\x00'
p1594
tp1595
Rp1596
sg35
S'(test_data["Year"]<=1977.5) & (test_data["Genre"].str.contains("Thriller")) & (test_data["Age"]>21.5) & (test_data["Occupation"]<=19.5) & (test_data["Gender"] == "F")'
p1597
sbasg22
g44
sg24
(lp1598
g46
ag47
asg35
S'(test_data["Year"]<=1977.5) & (test_data["Genre"].str.contains("Thriller")) & (test_data["Age"]>21.5) & (test_data["Occupation"]<=19.5)'
p1599
sba(i__main__
Decision_Tree
p1600
(dp1601
g2
(lp1602
(i__main__
Decision_Tree
p1603
(dp1604
g2
(lp1605
Nasg22
g23
sg24
g25
(g29
S'\x05\x00\x00\x00\x00\x00\x00\x00'
p1606
tp1607
Rp1608
sg35
S'(test_data["Year"]<=1977.5) & (test_data["Genre"].str.contains("Thriller")) & (test_data["Age"]>21.5) & (test_data["Occupation"]>19.5) & (test_data["Gender"] == "M")'
p1609
sba(i__main__
Decision_Tree
p1610
(dp1611
g2
(lp1612
Nasg22
g23
sg24
g25
(g29
S'\x04\x00\x00\x00\x00\x00\x00\x00'
p1613
tp1614
Rp1615
sg35
S'(test_data["Year"]<=1977.5) & (test_data["Genre"].str.contains("Thriller")) & (test_data["Age"]>21.5) & (test_data["Occupation"]>19.5) & (test_data["Gender"] == "F")'
p1616
sbasg22
g44
sg24
(lp1617
g46
ag47
asg35
S'(test_data["Year"]<=1977.5) & (test_data["Genre"].str.contains("Thriller")) & (test_data["Age"]>21.5) & (test_data["Occupation"]>19.5)'
p1618
sbasg22
g68
sg24
g25
(g71
S'\x00\x00\x00\x00\x00\x803@'
p1619
tp1620
Rp1621
sg35
S'(test_data["Year"]<=1977.5) & (test_data["Genre"].str.contains("Thriller")) & (test_data["Age"]>21.5)'
p1622
sbasg22
g123
sg24
g25
(g71
S'\x00\x00\x00\x00\x00\x805@'
p1623
tp1624
Rp1625
sg35
S'(test_data["Year"]<=1977.5) & (test_data["Genre"].str.contains("Thriller"))'
p1626
sba(i__main__
Decision_Tree
p1627
(dp1628
g2
(lp1629
(i__main__
Decision_Tree
p1630
(dp1631
g2
(lp1632
(i__main__
Decision_Tree
p1633
(dp1634
g2
(lp1635
(i__main__
Decision_Tree
p1636
(dp1637
g2
(lp1638
Nasg22
g23
sg24
g25
(g29
S'\x05\x00\x00\x00\x00\x00\x00\x00'
p1639
tp1640
Rp1641
sg35
S'(test_data["Year"]<=1977.5) & (test_data["Genre"].str.contains("War")) & (test_data["Age"]<=21.5) & (test_data["Occupation"]<=5.5) & (test_data["Gender"] == "M")'
p1642
sba(i__main__
Decision_Tree
p1643
(dp1644
g2
(lp1645
Nasg22
g23
sg24
g25
(g29
S'\x05\x00\x00\x00\x00\x00\x00\x00'
p1646
tp1647
Rp1648
sg35
S'(test_data["Year"]<=1977.5) & (test_data["Genre"].str.contains("War")) & (test_data["Age"]<=21.5) & (test_data["Occupation"]<=5.5) & (test_data["Gender"] == "F")'
p1649
sbasg22
g44
sg24
(lp1650
g46
ag47
asg35
S'(test_data["Year"]<=1977.5) & (test_data["Genre"].str.contains("War")) & (test_data["Age"]<=21.5) & (test_data["Occupation"]<=5.5)'
p1651
sba(i__main__
Decision_Tree
p1652
(dp1653
g2
(lp1654
(i__main__
Decision_Tree
p1655
(dp1656
g2
(lp1657
Nasg22
g23
sg24
g25
(g29
S'\x05\x00\x00\x00\x00\x00\x00\x00'
p1658
tp1659
Rp1660
sg35
S'(test_data["Year"]<=1977.5) & (test_data["Genre"].str.contains("War")) & (test_data["Age"]<=21.5) & (test_data["Occupation"]>5.5) & (test_data["Gender"] == "M")'
p1661
sba(i__main__
Decision_Tree
p1662
(dp1663
g2
(lp1664
Nasg22
g23
sg24
g25
(g29
S'\x05\x00\x00\x00\x00\x00\x00\x00'
p1665
tp1666
Rp1667
sg35
S'(test_data["Year"]<=1977.5) & (test_data["Genre"].str.contains("War")) & (test_data["Age"]<=21.5) & (test_data["Occupation"]>5.5) & (test_data["Gender"] == "F")'
p1668
sbasg22
g44
sg24
(lp1669
g46
ag47
asg35
S'(test_data["Year"]<=1977.5) & (test_data["Genre"].str.contains("War")) & (test_data["Age"]<=21.5) & (test_data["Occupation"]>5.5)'
p1670
sbasg22
g68
sg24
g25
(g71
S'\x00\x00\x00\x00\x00\x00\x16@'
p1671
tp1672
Rp1673
sg35
S'(test_data["Year"]<=1977.5) & (test_data["Genre"].str.contains("War")) & (test_data["Age"]<=21.5)'
p1674
sba(i__main__
Decision_Tree
p1675
(dp1676
g2
(lp1677
(i__main__
Decision_Tree
p1678
(dp1679
g2
(lp1680
(i__main__
Decision_Tree
p1681
(dp1682
g2
(lp1683
Nasg22
g23
sg24
g25
(g29
S'\x05\x00\x00\x00\x00\x00\x00\x00'
p1684
tp1685
Rp1686
sg35
S'(test_data["Year"]<=1977.5) & (test_data["Genre"].str.contains("War")) & (test_data["Age"]>21.5) & (test_data["Occupation"]<=8.5) & (test_data["Gender"] == "M")'
p1687
sba(i__main__
Decision_Tree
p1688
(dp1689
g2
(lp1690
Nasg22
g23
sg24
g25
(g29
S'\x05\x00\x00\x00\x00\x00\x00\x00'
p1691
tp1692
Rp1693
sg35
S'(test_data["Year"]<=1977.5) & (test_data["Genre"].str.contains("War")) & (test_data["Age"]>21.5) & (test_data["Occupation"]<=8.5) & (test_data["Gender"] == "F")'
p1694
sbasg22
g44
sg24
(lp1695
g46
ag47
asg35
S'(test_data["Year"]<=1977.5) & (test_data["Genre"].str.contains("War")) & (test_data["Age"]>21.5) & (test_data["Occupation"]<=8.5)'
p1696
sba(i__main__
Decision_Tree
p1697
(dp1698
g2
(lp1699
(i__main__
Decision_Tree
p1700
(dp1701
g2
(lp1702
Nasg22
g23
sg24
g25
(g29
S'\x05\x00\x00\x00\x00\x00\x00\x00'
p1703
tp1704
Rp1705
sg35
S'(test_data["Year"]<=1977.5) & (test_data["Genre"].str.contains("War")) & (test_data["Age"]>21.5) & (test_data["Occupation"]>8.5) & (test_data["Gender"] == "M")'
p1706
sba(i__main__
Decision_Tree
p1707
(dp1708
g2
(lp1709
Nasg22
g23
sg24
g25
(g29
S'\x05\x00\x00\x00\x00\x00\x00\x00'
p1710
tp1711
Rp1712
sg35
S'(test_data["Year"]<=1977.5) & (test_data["Genre"].str.contains("War")) & (test_data["Age"]>21.5) & (test_data["Occupation"]>8.5) & (test_data["Gender"] == "F")'
p1713
sbasg22
g44
sg24
(lp1714
g46
ag47
asg35
S'(test_data["Year"]<=1977.5) & (test_data["Genre"].str.contains("War")) & (test_data["Age"]>21.5) & (test_data["Occupation"]>8.5)'
p1715
sbasg22
g68
sg24
g25
(g71
S'\x00\x00\x00\x00\x00\x00!@'
p1716
tp1717
Rp1718
sg35
S'(test_data["Year"]<=1977.5) & (test_data["Genre"].str.contains("War")) & (test_data["Age"]>21.5)'
p1719
sbasg22
g123
sg24
g25
(g71
S'\x00\x00\x00\x00\x00\x805@'
p1720
tp1721
Rp1722
sg35
S'(test_data["Year"]<=1977.5) & (test_data["Genre"].str.contains("War"))'
p1723
sba(i__main__
Decision_Tree
p1724
(dp1725
g2
(lp1726
(i__main__
Decision_Tree
p1727
(dp1728
g2
(lp1729
(i__main__
Decision_Tree
p1730
(dp1731
g2
(lp1732
(i__main__
Decision_Tree
p1733
(dp1734
g2
(lp1735
Nasg22
g23
sg24
g25
(g29
S'\x05\x00\x00\x00\x00\x00\x00\x00'
p1736
tp1737
Rp1738
sg35
S'(test_data["Year"]<=1977.5) & (test_data["Genre"].str.contains("Western")) & (test_data["Age"]<=21.5) & (test_data["Occupation"]<=16.5) & (test_data["Gender"] == "M")'
p1739
sba(i__main__
Decision_Tree
p1740
(dp1741
g2
(lp1742
Nasg22
g23
sg24
g25
(g29
S'\x04\x00\x00\x00\x00\x00\x00\x00'
p1743
tp1744
Rp1745
sg35
S'(test_data["Year"]<=1977.5) & (test_data["Genre"].str.contains("Western")) & (test_data["Age"]<=21.5) & (test_data["Occupation"]<=16.5) & (test_data["Gender"] == "F")'
p1746
sbasg22
g44
sg24
(lp1747
g46
ag47
asg35
S'(test_data["Year"]<=1977.5) & (test_data["Genre"].str.contains("Western")) & (test_data["Age"]<=21.5) & (test_data["Occupation"]<=16.5)'
p1748
sba(i__main__
Decision_Tree
p1749
(dp1750
g2
(lp1751
(i__main__
Decision_Tree
p1752
(dp1753
g2
(lp1754
Nasg22
g23
sg24
g25
(g29
S'\x05\x00\x00\x00\x00\x00\x00\x00'
p1755
tp1756
Rp1757
sg35
S'(test_data["Year"]<=1977.5) & (test_data["Genre"].str.contains("Western")) & (test_data["Age"]<=21.5) & (test_data["Occupation"]>16.5) & (test_data["Gender"] == "M")'
p1758
sba(i__main__
Decision_Tree
p1759
(dp1760
g2
(lp1761
Nasg22
g23
sg24
g25
(g29
S'\x03\x00\x00\x00\x00\x00\x00\x00'
p1762
tp1763
Rp1764
sg35
S'(test_data["Year"]<=1977.5) & (test_data["Genre"].str.contains("Western")) & (test_data["Age"]<=21.5) & (test_data["Occupation"]>16.5) & (test_data["Gender"] == "F")'
p1765
sbasg22
g44
sg24
(lp1766
g46
ag47
asg35
S'(test_data["Year"]<=1977.5) & (test_data["Genre"].str.contains("Western")) & (test_data["Age"]<=21.5) & (test_data["Occupation"]>16.5)'
p1767
sbasg22
g68
sg24
g25
(g71
S'\x00\x00\x00\x00\x00\x800@'
p1768
tp1769
Rp1770
sg35
S'(test_data["Year"]<=1977.5) & (test_data["Genre"].str.contains("Western")) & (test_data["Age"]<=21.5)'
p1771
sba(i__main__
Decision_Tree
p1772
(dp1773
g2
(lp1774
(i__main__
Decision_Tree
p1775
(dp1776
g2
(lp1777
(i__main__
Decision_Tree
p1778
(dp1779
g2
(lp1780
Nasg22
g23
sg24
g25
(g29
S'\x04\x00\x00\x00\x00\x00\x00\x00'
p1781
tp1782
Rp1783
sg35
S'(test_data["Year"]<=1977.5) & (test_data["Genre"].str.contains("Western")) & (test_data["Age"]>21.5) & (test_data["Occupation"]<=11.5) & (test_data["Gender"] == "M")'
p1784
sba(i__main__
Decision_Tree
p1785
(dp1786
g2
(lp1787
Nasg22
g23
sg24
g25
(g29
S'\x04\x00\x00\x00\x00\x00\x00\x00'
p1788
tp1789
Rp1790
sg35
S'(test_data["Year"]<=1977.5) & (test_data["Genre"].str.contains("Western")) & (test_data["Age"]>21.5) & (test_data["Occupation"]<=11.5) & (test_data["Gender"] == "F")'
p1791
sbasg22
g44
sg24
(lp1792
g46
ag47
asg35
S'(test_data["Year"]<=1977.5) & (test_data["Genre"].str.contains("Western")) & (test_data["Age"]>21.5) & (test_data["Occupation"]<=11.5)'
p1793
sba(i__main__
Decision_Tree
p1794
(dp1795
g2
(lp1796
(i__main__
Decision_Tree
p1797
(dp1798
g2
(lp1799
Nasg22
g23
sg24
g25
(g29
S'\x04\x00\x00\x00\x00\x00\x00\x00'
p1800
tp1801
Rp1802
sg35
S'(test_data["Year"]<=1977.5) & (test_data["Genre"].str.contains("Western")) & (test_data["Age"]>21.5) & (test_data["Occupation"]>11.5) & (test_data["Gender"] == "M")'
p1803
sba(i__main__
Decision_Tree
p1804
(dp1805
g2
(lp1806
Nasg22
g23
sg24
g25
(g29
S'\x04\x00\x00\x00\x00\x00\x00\x00'
p1807
tp1808
Rp1809
sg35
S'(test_data["Year"]<=1977.5) & (test_data["Genre"].str.contains("Western")) & (test_data["Age"]>21.5) & (test_data["Occupation"]>11.5) & (test_data["Gender"] == "F")'
p1810
sbasg22
g44
sg24
(lp1811
g46
ag47
asg35
S'(test_data["Year"]<=1977.5) & (test_data["Genre"].str.contains("Western")) & (test_data["Age"]>21.5) & (test_data["Occupation"]>11.5)'
p1812
sbasg22
g68
sg24
g25
(g71
S"\x00\x00\x00\x00\x00\x00'@"
p1813
tp1814
Rp1815
sg35
S'(test_data["Year"]<=1977.5) & (test_data["Genre"].str.contains("Western")) & (test_data["Age"]>21.5)'
p1816
sbasg22
g123
sg24
g25
(g71
S'\x00\x00\x00\x00\x00\x805@'
p1817
tp1818
Rp1819
sg35
S'(test_data["Year"]<=1977.5) & (test_data["Genre"].str.contains("Western"))'
p1820
sbasg22
S'Genre'
p1821
sg24
cnumpy.core.multiarray
_reconstruct
p1822
(cnumpy
ndarray
p1823
(I0
tp1824
S'b'
p1825
tp1826
Rp1827
(I1
(I18
tp1828
g26
(S'S11'
p1829
I0
I1
tp1830
Rp1831
(I3
S'|'
p1832
NNNI11
I1
I0
tp1833
bI00
S"Action\x00\x00\x00\x00\x00Adventure\x00\x00Animation\x00\x00Children's\x00Comedy\x00\x00\x00\x00\x00Crime\x00\x00\x00\x00\x00\x00DocumentaryDrama\x00\x00\x00\x00\x00\x00Fantasy\x00\x00\x00\x00Film-Noir\x00\x00Horror\x00\x00\x00\x00\x00Musical\x00\x00\x00\x00Mystery\x00\x00\x00\x00Romance\x00\x00\x00\x00Sci-Fi\x00\x00\x00\x00\x00Thriller\x00\x00\x00War\x00\x00\x00\x00\x00\x00\x00\x00Western\x00\x00\x00\x00"
p1834
tp1835
bsg35
S'(test_data["Year"]<=1977.5)'
p1836
sba(i__main__
Decision_Tree
p1837
(dp1838
g2
(lp1839
(i__main__
Decision_Tree
p1840
(dp1841
g2
(lp1842
(i__main__
Decision_Tree
p1843
(dp1844
g2
(lp1845
(i__main__
Decision_Tree
p1846
(dp1847
g2
(lp1848
(i__main__
Decision_Tree
p1849
(dp1850
g2
(lp1851
Nasg22
g23
sg24
g25
(g29
S'\x04\x00\x00\x00\x00\x00\x00\x00'
p1852
tp1853
Rp1854
sg35
S'(test_data["Year"]>1977.5) & (test_data["Genre"].str.contains("Action")) & (test_data["Age"]<=30.0) & (test_data["Occupation"]<=18.5) & (test_data["Gender"] == "M")'
p1855
sba(i__main__
Decision_Tree
p1856
(dp1857
g2
(lp1858
Nasg22
g23
sg24
g25
(g29
S'\x04\x00\x00\x00\x00\x00\x00\x00'
p1859
tp1860
Rp1861
sg35
S'(test_data["Year"]>1977.5) & (test_data["Genre"].str.contains("Action")) & (test_data["Age"]<=30.0) & (test_data["Occupation"]<=18.5) & (test_data["Gender"] == "F")'
p1862
sbasg22
g44
sg24
(lp1863
g46
ag47
asg35
S'(test_data["Year"]>1977.5) & (test_data["Genre"].str.contains("Action")) & (test_data["Age"]<=30.0) & (test_data["Occupation"]<=18.5)'
p1864
sba(i__main__
Decision_Tree
p1865
(dp1866
g2
(lp1867
(i__main__
Decision_Tree
p1868
(dp1869
g2
(lp1870
Nasg22
g23
sg24
g25
(g29
S'\x03\x00\x00\x00\x00\x00\x00\x00'
p1871
tp1872
Rp1873
sg35
S'(test_data["Year"]>1977.5) & (test_data["Genre"].str.contains("Action")) & (test_data["Age"]<=30.0) & (test_data["Occupation"]>18.5) & (test_data["Gender"] == "M")'
p1874
sba(i__main__
Decision_Tree
p1875
(dp1876
g2
(lp1877
Nasg22
g23
sg24
g25
(g29
S'\x03\x00\x00\x00\x00\x00\x00\x00'
p1878
tp1879
Rp1880
sg35
S'(test_data["Year"]>1977.5) & (test_data["Genre"].str.contains("Action")) & (test_data["Age"]<=30.0) & (test_data["Occupation"]>18.5) & (test_data["Gender"] == "F")'
p1881
sbasg22
g44
sg24
(lp1882
g46
ag47
asg35
S'(test_data["Year"]>1977.5) & (test_data["Genre"].str.contains("Action")) & (test_data["Age"]<=30.0) & (test_data["Occupation"]>18.5)'
p1883
sbasg22
g68
sg24
g25
(g71
S'\x00\x00\x00\x00\x00\x802@'
p1884
tp1885
Rp1886
sg35
S'(test_data["Year"]>1977.5) & (test_data["Genre"].str.contains("Action")) & (test_data["Age"]<=30.0)'
p1887
sba(i__main__
Decision_Tree
p1888
(dp1889
g2
(lp1890
(i__main__
Decision_Tree
p1891
(dp1892
g2
(lp1893
(i__main__
Decision_Tree
p1894
(dp1895
g2
(lp1896
Nasg22
g23
sg24
g25
(g29
S'\x04\x00\x00\x00\x00\x00\x00\x00'
p1897
tp1898
Rp1899
sg35
S'(test_data["Year"]>1977.5) & (test_data["Genre"].str.contains("Action")) & (test_data["Age"]>30.0) & (test_data["Gender"] == "M") & (test_data["Occupation"]<=1.5)'
p1900
sba(i__main__
Decision_Tree
p1901
(dp1902
g2
(lp1903
Nasg22
g23
sg24
g25
(g29
S'\x04\x00\x00\x00\x00\x00\x00\x00'
p1904
tp1905
Rp1906
sg35
S'(test_data["Year"]>1977.5) & (test_data["Genre"].str.contains("Action")) & (test_data["Age"]>30.0) & (test_data["Gender"] == "M") & (test_data["Occupation"]>1.5)'
p1907
sbasg22
g68
sg24
g25
(g71
S'\x00\x00\x00\x00\x00\x00\xf8?'
p1908
tp1909
Rp1910
sg35
S'(test_data["Year"]>1977.5) & (test_data["Genre"].str.contains("Action")) & (test_data["Age"]>30.0) & (test_data["Gender"] == "M")'
p1911
sba(i__main__
Decision_Tree
p1912
(dp1913
g2
(lp1914
(i__main__
Decision_Tree
p1915
(dp1916
g2
(lp1917
Nasg22
g23
sg24
g25
(g29
S'\x04\x00\x00\x00\x00\x00\x00\x00'
p1918
tp1919
Rp1920
sg35
S'(test_data["Year"]>1977.5) & (test_data["Genre"].str.contains("Action")) & (test_data["Age"]>30.0) & (test_data["Gender"] == "F") & (test_data["Occupation"]<=3.5)'
p1921
sba(i__main__
Decision_Tree
p1922
(dp1923
g2
(lp1924
Nasg22
g23
sg24
g25
(g29
S'\x04\x00\x00\x00\x00\x00\x00\x00'
p1925
tp1926
Rp1927
sg35
S'(test_data["Year"]>1977.5) & (test_data["Genre"].str.contains("Action")) & (test_data["Age"]>30.0) & (test_data["Gender"] == "F") & (test_data["Occupation"]>3.5)'
p1928
sbasg22
g68
sg24
g25
(g71
S'\x00\x00\x00\x00\x00\x00\x0c@'
p1929
tp1930
Rp1931
sg35
S'(test_data["Year"]>1977.5) & (test_data["Genre"].str.contains("Action")) & (test_data["Age"]>30.0) & (test_data["Gender"] == "F")'
p1932
sbasg22
g44
sg24
(lp1933
g46
ag47
asg35
S'(test_data["Year"]>1977.5) & (test_data["Genre"].str.contains("Action")) & (test_data["Age"]>30.0)'
p1934
sbasg22
g123
sg24
g25
(g71
S'\x00\x00\x00\x00\x00\x00>@'
p1935
tp1936
Rp1937
sg35
S'(test_data["Year"]>1977.5) & (test_data["Genre"].str.contains("Action"))'
p1938
sba(i__main__
Decision_Tree
p1939
(dp1940
g2
(lp1941
(i__main__
Decision_Tree
p1942
(dp1943
g2
(lp1944
(i__main__
Decision_Tree
p1945
(dp1946
g2
(lp1947
(i__main__
Decision_Tree
p1948
(dp1949
g2
(lp1950
Nasg22
g23
sg24
g25
(g29
S'\x04\x00\x00\x00\x00\x00\x00\x00'
p1951
tp1952
Rp1953
sg35
S'(test_data["Year"]>1977.5) & (test_data["Genre"].str.contains("Adventure")) & (test_data["Age"]<=30.0) & (test_data["Occupation"]<=18.5) & (test_data["Gender"] == "M")'
p1954
sba(i__main__
Decision_Tree
p1955
(dp1956
g2
(lp1957
Nasg22
g23
sg24
g25
(g29
S'\x04\x00\x00\x00\x00\x00\x00\x00'
p1958
tp1959
Rp1960
sg35
S'(test_data["Year"]>1977.5) & (test_data["Genre"].str.contains("Adventure")) & (test_data["Age"]<=30.0) & (test_data["Occupation"]<=18.5) & (test_data["Gender"] == "F")'
p1961
sbasg22
g44
sg24
(lp1962
g46
ag47
asg35
S'(test_data["Year"]>1977.5) & (test_data["Genre"].str.contains("Adventure")) & (test_data["Age"]<=30.0) & (test_data["Occupation"]<=18.5)'
p1963
sba(i__main__
Decision_Tree
p1964
(dp1965
g2
(lp1966
(i__main__
Decision_Tree
p1967
(dp1968
g2
(lp1969
Nasg22
g23
sg24
g25
(g29
S'\x03\x00\x00\x00\x00\x00\x00\x00'
p1970
tp1971
Rp1972
sg35
S'(test_data["Year"]>1977.5) & (test_data["Genre"].str.contains("Adventure")) & (test_data["Age"]<=30.0) & (test_data["Occupation"]>18.5) & (test_data["Gender"] == "M")'
p1973
sba(i__main__
Decision_Tree
p1974
(dp1975
g2
(lp1976
Nasg22
g23
sg24
g25
(g29
S'\x04\x00\x00\x00\x00\x00\x00\x00'
p1977
tp1978
Rp1979
sg35
S'(test_data["Year"]>1977.5) & (test_data["Genre"].str.contains("Adventure")) & (test_data["Age"]<=30.0) & (test_data["Occupation"]>18.5) & (test_data["Gender"] == "F")'
p1980
sbasg22
g44
sg24
(lp1981
g46
ag47
asg35
S'(test_data["Year"]>1977.5) & (test_data["Genre"].str.contains("Adventure")) & (test_data["Age"]<=30.0) & (test_data["Occupation"]>18.5)'
p1982
sbasg22
g68
sg24
g25
(g71
S'\x00\x00\x00\x00\x00\x802@'
p1983
tp1984
Rp1985
sg35
S'(test_data["Year"]>1977.5) & (test_data["Genre"].str.contains("Adventure")) & (test_data["Age"]<=30.0)'
p1986
sba(i__main__
Decision_Tree
p1987
(dp1988
g2
(lp1989
(i__main__
Decision_Tree
p1990
(dp1991
g2
(lp1992
(i__main__
Decision_Tree
p1993
(dp1994
g2
(lp1995
Nasg22
g23
sg24
g25
(g29
S'\x04\x00\x00\x00\x00\x00\x00\x00'
p1996
tp1997
Rp1998
sg35
S'(test_data["Year"]>1977.5) & (test_data["Genre"].str.contains("Adventure")) & (test_data["Age"]>30.0) & (test_data["Occupation"]<=17.5) & (test_data["Gender"] == "M")'
p1999
sba(i__main__
Decision_Tree
p2000
(dp2001
g2
(lp2002
Nasg22
g23
sg24
g25
(g29
S'\x04\x00\x00\x00\x00\x00\x00\x00'
p2003
tp2004
Rp2005
sg35
S'(test_data["Year"]>1977.5) & (test_data["Genre"].str.contains("Adventure")) & (test_data["Age"]>30.0) & (test_data["Occupation"]<=17.5) & (test_data["Gender"] == "F")'
p2006
sbasg22
g44
sg24
(lp2007
g46
ag47
asg35
S'(test_data["Year"]>1977.5) & (test_data["Genre"].str.contains("Adventure")) & (test_data["Age"]>30.0) & (test_data["Occupation"]<=17.5)'
p2008
sba(i__main__
Decision_Tree
p2009
(dp2010
g2
(lp2011
(i__main__
Decision_Tree
p2012
(dp2013
g2
(lp2014
Nasg22
g23
sg24
g25
(g29
S'\x04\x00\x00\x00\x00\x00\x00\x00'
p2015
tp2016
Rp2017
sg35
S'(test_data["Year"]>1977.5) & (test_data["Genre"].str.contains("Adventure")) & (test_data["Age"]>30.0) & (test_data["Occupation"]>17.5) & (test_data["Gender"] == "M")'
p2018
sba(i__main__
Decision_Tree
p2019
(dp2020
g2
(lp2021
Nasg22
g23
sg24
g25
(g29
S'\x04\x00\x00\x00\x00\x00\x00\x00'
p2022
tp2023
Rp2024
sg35
S'(test_data["Year"]>1977.5) & (test_data["Genre"].str.contains("Adventure")) & (test_data["Age"]>30.0) & (test_data["Occupation"]>17.5) & (test_data["Gender"] == "F")'
p2025
sbasg22
g44
sg24
(lp2026
g46
ag47
asg35
S'(test_data["Year"]>1977.5) & (test_data["Genre"].str.contains("Adventure")) & (test_data["Age"]>30.0) & (test_data["Occupation"]>17.5)'
p2027
sbasg22
g68
sg24
g25
(g71
S'\x00\x00\x00\x00\x00\x801@'
p2028
tp2029
Rp2030
sg35
S'(test_data["Year"]>1977.5) & (test_data["Genre"].str.contains("Adventure")) & (test_data["Age"]>30.0)'
p2031
sbasg22
g123
sg24
g25
(g71
S'\x00\x00\x00\x00\x00\x00>@'
p2032
tp2033
Rp2034
sg35
S'(test_data["Year"]>1977.5) & (test_data["Genre"].str.contains("Adventure"))'
p2035
sba(i__main__
Decision_Tree
p2036
(dp2037
g2
(lp2038
(i__main__
Decision_Tree
p2039
(dp2040
g2
(lp2041
(i__main__
Decision_Tree
p2042
(dp2043
g2
(lp2044
(i__main__
Decision_Tree
p2045
(dp2046
g2
(lp2047
Nasg22
g23
sg24
g25
(g29
S'\x04\x00\x00\x00\x00\x00\x00\x00'
p2048
tp2049
Rp2050
sg35
S'(test_data["Year"]>1977.5) & (test_data["Genre"].str.contains("Animation")) & (test_data["Gender"] == "M") & (test_data["Age"]<=9.5) & (test_data["Occupation"]<=3.0)'
p2051
sba(i__main__
Decision_Tree
p2052
(dp2053
g2
(lp2054
Nasg22
g23
sg24
g25
(g29
S'\x04\x00\x00\x00\x00\x00\x00\x00'
p2055
tp2056
Rp2057
sg35
S'(test_data["Year"]>1977.5) & (test_data["Genre"].str.contains("Animation")) & (test_data["Gender"] == "M") & (test_data["Age"]<=9.5) & (test_data["Occupation"]>3.0)'
p2058
sbasg22
g68
sg24
g25
(g71
S'\x00\x00\x00\x00\x00\x00\x08@'
p2059
tp2060
Rp2061
sg35
S'(test_data["Year"]>1977.5) & (test_data["Genre"].str.contains("Animation")) & (test_data["Gender"] == "M") & (test_data["Age"]<=9.5)'
p2062
sba(i__main__
Decision_Tree
p2063
(dp2064
g2
(lp2065
(i__main__
Decision_Tree
p2066
(dp2067
g2
(lp2068
Nasg22
g23
sg24
g25
(g29
S'\x04\x00\x00\x00\x00\x00\x00\x00'
p2069
tp2070
Rp2071
sg35
S'(test_data["Year"]>1977.5) & (test_data["Genre"].str.contains("Animation")) & (test_data["Gender"] == "M") & (test_data["Age"]>9.5) & (test_data["Occupation"]<=1.5)'
p2072
sba(i__main__
Decision_Tree
p2073
(dp2074
g2
(lp2075
Nasg22
g23
sg24
g25
(g29
S'\x04\x00\x00\x00\x00\x00\x00\x00'
p2076
tp2077
Rp2078
sg35
S'(test_data["Year"]>1977.5) & (test_data["Genre"].str.contains("Animation")) & (test_data["Gender"] == "M") & (test_data["Age"]>9.5) & (test_data["Occupation"]>1.5)'
p2079
sbasg22
g68
sg24
g25
(g71
S'\x00\x00\x00\x00\x00\x00\xf8?'
p2080
tp2081
Rp2082
sg35
S'(test_data["Year"]>1977.5) & (test_data["Genre"].str.contains("Animation")) & (test_data["Gender"] == "M") & (test_data["Age"]>9.5)'
p2083
sbasg22
g123
sg24
g25
(g71
S'\x00\x00\x00\x00\x00\x00#@'
p2084
tp2085
Rp2086
sg35
S'(test_data["Year"]>1977.5) & (test_data["Genre"].str.contains("Animation")) & (test_data["Gender"] == "M")'
p2087
sba(i__main__
Decision_Tree
p2088
(dp2089
g2
(lp2090
(i__main__
Decision_Tree
p2091
(dp2092
g2
(lp2093
(i__main__
Decision_Tree
p2094
(dp2095
g2
(lp2096
Nasg22
g23
sg24
g25
(g29
S'\x04\x00\x00\x00\x00\x00\x00\x00'
p2097
tp2098
Rp2099
sg35
S'(test_data["Year"]>1977.5) & (test_data["Genre"].str.contains("Animation")) & (test_data["Gender"] == "F") & (test_data["Age"]<=21.5) & (test_data["Occupation"]<=8.0)'
p2100
sba(i__main__
Decision_Tree
p2101
(dp2102
g2
(lp2103
Nasg22
g23
sg24
g25
(g29
S'\x04\x00\x00\x00\x00\x00\x00\x00'
p2104
tp2105
Rp2106
sg35
S'(test_data["Year"]>1977.5) & (test_data["Genre"].str.contains("Animation")) & (test_data["Gender"] == "F") & (test_data["Age"]<=21.5) & (test_data["Occupation"]>8.0)'
p2107
sbasg22
g68
sg24
g25
(g71
S'\x00\x00\x00\x00\x00\x00 @'
p2108
tp2109
Rp2110
sg35
S'(test_data["Year"]>1977.5) & (test_data["Genre"].str.contains("Animation")) & (test_data["Gender"] == "F") & (test_data["Age"]<=21.5)'
p2111
sba(i__main__
Decision_Tree
p2112
(dp2113
g2
(lp2114
(i__main__
Decision_Tree
p2115
(dp2116
g2
(lp2117
Nasg22
g23
sg24
g25
(g29
S'\x04\x00\x00\x00\x00\x00\x00\x00'
p2118
tp2119
Rp2120
sg35
S'(test_data["Year"]>1977.5) & (test_data["Genre"].str.contains("Animation")) & (test_data["Gender"] == "F") & (test_data["Age"]>21.5) & (test_data["Occupation"]<=13.5)'
p2121
sba(i__main__
Decision_Tree
p2122
(dp2123
g2
(lp2124
Nasg22
g23
sg24
g25
(g29
S'\x04\x00\x00\x00\x00\x00\x00\x00'
p2125
tp2126
Rp2127
sg35
S'(test_data["Year"]>1977.5) & (test_data["Genre"].str.contains("Animation")) & (test_data["Gender"] == "F") & (test_data["Age"]>21.5) & (test_data["Occupation"]>13.5)'
p2128
sbasg22
g68
sg24
g25
(g71
S'\x00\x00\x00\x00\x00\x00+@'
p2129
tp2130
Rp2131
sg35
S'(test_data["Year"]>1977.5) & (test_data["Genre"].str.contains("Animation")) & (test_data["Gender"] == "F") & (test_data["Age"]>21.5)'
p2132
sbasg22
g123
sg24
g25
(g71
S'\x00\x00\x00\x00\x00\x805@'
p2133
tp2134
Rp2135
sg35
S'(test_data["Year"]>1977.5) & (test_data["Genre"].str.contains("Animation")) & (test_data["Gender"] == "F")'
p2136
sbasg22
g44
sg24
(lp2137
g46
ag47
asg35
S'(test_data["Year"]>1977.5) & (test_data["Genre"].str.contains("Animation"))'
p2138
sba(i__main__
Decision_Tree
p2139
(dp2140
g2
(lp2141
(i__main__
Decision_Tree
p2142
(dp2143
g2
(lp2144
(i__main__
Decision_Tree
p2145
(dp2146
g2
(lp2147
(i__main__
Decision_Tree
p2148
(dp2149
g2
(lp2150
Nasg22
g23
sg24
g25
(g29
S'\x04\x00\x00\x00\x00\x00\x00\x00'
p2151
tp2152
Rp2153
sg35
S'(test_data["Year"]>1977.5) & (test_data["Genre"].str.contains("Children\'s")) & (test_data["Gender"] == "M") & (test_data["Age"]<=30.0) & (test_data["Occupation"]<=18.5)'
p2154
sba(i__main__
Decision_Tree
p2155
(dp2156
g2
(lp2157
Nasg22
g23
sg24
g25
(g29
S'\x04\x00\x00\x00\x00\x00\x00\x00'
p2158
tp2159
Rp2160
sg35
S'(test_data["Year"]>1977.5) & (test_data["Genre"].str.contains("Children\'s")) & (test_data["Gender"] == "M") & (test_data["Age"]<=30.0) & (test_data["Occupation"]>18.5)'
p2161
sbasg22
g68
sg24
g25
(g71
S'\x00\x00\x00\x00\x00\x802@'
p2162
tp2163
Rp2164
sg35
S'(test_data["Year"]>1977.5) & (test_data["Genre"].str.contains("Children\'s")) & (test_data["Gender"] == "M") & (test_data["Age"]<=30.0)'
p2165
sba(i__main__
Decision_Tree
p2166
(dp2167
g2
(lp2168
(i__main__
Decision_Tree
p2169
(dp2170
g2
(lp2171
Nasg22
g23
sg24
g25
(g29
S'\x04\x00\x00\x00\x00\x00\x00\x00'
p2172
tp2173
Rp2174
sg35
S'(test_data["Year"]>1977.5) & (test_data["Genre"].str.contains("Children\'s")) & (test_data["Gender"] == "M") & (test_data["Age"]>30.0) & (test_data["Occupation"]<=10.5)'
p2175
sba(i__main__
Decision_Tree
p2176
(dp2177
g2
(lp2178
Nasg22
g23
sg24
g25
(g29
S'\x04\x00\x00\x00\x00\x00\x00\x00'
p2179
tp2180
Rp2181
sg35
S'(test_data["Year"]>1977.5) & (test_data["Genre"].str.contains("Children\'s")) & (test_data["Gender"] == "M") & (test_data["Age"]>30.0) & (test_data["Occupation"]>10.5)'
p2182
sbasg22
g68
sg24
g25
(g71
S'\x00\x00\x00\x00\x00\x00%@'
p2183
tp2184
Rp2185
sg35
S'(test_data["Year"]>1977.5) & (test_data["Genre"].str.contains("Children\'s")) & (test_data["Gender"] == "M") & (test_data["Age"]>30.0)'
p2186
sbasg22
g123
sg24
g25
(g71
S'\x00\x00\x00\x00\x00\x00>@'
p2187
tp2188
Rp2189
sg35
S'(test_data["Year"]>1977.5) & (test_data["Genre"].str.contains("Children\'s")) & (test_data["Gender"] == "M")'
p2190
sba(i__main__
Decision_Tree
p2191
(dp2192
g2
(lp2193
(i__main__
Decision_Tree
p2194
(dp2195
g2
(lp2196
(i__main__
Decision_Tree
p2197
(dp2198
g2
(lp2199
Nasg22
g23
sg24
g25
(g29
S'\x04\x00\x00\x00\x00\x00\x00\x00'
p2200
tp2201
Rp2202
sg35
S'(test_data["Year"]>1977.5) & (test_data["Genre"].str.contains("Children\'s")) & (test_data["Gender"] == "F") & (test_data["Age"]<=21.5) & (test_data["Occupation"]<=19.5)'
p2203
sba(i__main__
Decision_Tree
p2204
(dp2205
g2
(lp2206
Nasg22
g23
sg24
g25
(g29
S'\x01\x00\x00\x00\x00\x00\x00\x00'
p2207
tp2208
Rp2209
sg35
S'(test_data["Year"]>1977.5) & (test_data["Genre"].str.contains("Children\'s")) & (test_data["Gender"] == "F") & (test_data["Age"]<=21.5) & (test_data["Occupation"]>19.5)'
p2210
sbasg22
g68
sg24
g25
(g71
S'\x00\x00\x00\x00\x00\x803@'
p2211
tp2212
Rp2213
sg35
S'(test_data["Year"]>1977.5) & (test_data["Genre"].str.contains("Children\'s")) & (test_data["Gender"] == "F") & (test_data["Age"]<=21.5)'
p2214
sba(i__main__
Decision_Tree
p2215
(dp2216
g2
(lp2217
(i__main__
Decision_Tree
p2218
(dp2219
g2
(lp2220
Nasg22
g23
sg24
g25
(g29
S'\x04\x00\x00\x00\x00\x00\x00\x00'
p2221
tp2222
Rp2223
sg35
S'(test_data["Year"]>1977.5) & (test_data["Genre"].str.contains("Children\'s")) & (test_data["Gender"] == "F") & (test_data["Age"]>21.5) & (test_data["Occupation"]<=3.5)'
p2224
sba(i__main__
Decision_Tree
p2225
(dp2226
g2
(lp2227
Nasg22
g23
sg24
g25
(g29
S'\x04\x00\x00\x00\x00\x00\x00\x00'
p2228
tp2229
Rp2230
sg35
S'(test_data["Year"]>1977.5) & (test_data["Genre"].str.contains("Children\'s")) & (test_data["Gender"] == "F") & (test_data["Age"]>21.5) & (test_data["Occupation"]>3.5)'
p2231
sbasg22
g68
sg24
g25
(g71
S'\x00\x00\x00\x00\x00\x00\x0c@'
p2232
tp2233
Rp2234
sg35
S'(test_data["Year"]>1977.5) & (test_data["Genre"].str.contains("Children\'s")) & (test_data["Gender"] == "F") & (test_data["Age"]>21.5)'
p2235
sbasg22
g123
sg24
g25
(g71
S'\x00\x00\x00\x00\x00\x805@'
p2236
tp2237
Rp2238
sg35
S'(test_data["Year"]>1977.5) & (test_data["Genre"].str.contains("Children\'s")) & (test_data["Gender"] == "F")'
p2239
sbasg22
g44
sg24
(lp2240
g46
ag47
asg35
S'(test_data["Year"]>1977.5) & (test_data["Genre"].str.contains("Children\'s"))'
p2241
sba(i__main__
Decision_Tree
p2242
(dp2243
g2
(lp2244
(i__main__
Decision_Tree
p2245
(dp2246
g2
(lp2247
(i__main__
Decision_Tree
p2248
(dp2249
g2
(lp2250
(i__main__
Decision_Tree
p2251
(dp2252
g2
(lp2253
Nasg22
g23
sg24
g25
(g29
S'\x04\x00\x00\x00\x00\x00\x00\x00'
p2254
tp2255
Rp2256
sg35
S'(test_data["Year"]>1977.5) & (test_data["Genre"].str.contains("Comedy")) & (test_data["Gender"] == "M") & (test_data["Occupation"]<=18.5) & (test_data["Age"]<=21.5)'
p2257
sba(i__main__
Decision_Tree
p2258
(dp2259
g2
(lp2260
Nasg22
g23
sg24
g25
(g29
S'\x04\x00\x00\x00\x00\x00\x00\x00'
p2261
tp2262
Rp2263
sg35
S'(test_data["Year"]>1977.5) & (test_data["Genre"].str.contains("Comedy")) & (test_data["Gender"] == "M") & (test_data["Occupation"]<=18.5) & (test_data["Age"]>21.5)'
p2264
sbasg22
g123
sg24
g25
(g71
S'\x00\x00\x00\x00\x00\x805@'
p2265
tp2266
Rp2267
sg35
S'(test_data["Year"]>1977.5) & (test_data["Genre"].str.contains("Comedy")) & (test_data["Gender"] == "M") & (test_data["Occupation"]<=18.5)'
p2268
sba(i__main__
Decision_Tree
p2269
(dp2270
g2
(lp2271
(i__main__
Decision_Tree
p2272
(dp2273
g2
(lp2274
Nasg22
g23
sg24
g25
(g29
S'\x04\x00\x00\x00\x00\x00\x00\x00'
p2275
tp2276
Rp2277
sg35
S'(test_data["Year"]>1977.5) & (test_data["Genre"].str.contains("Comedy")) & (test_data["Gender"] == "M") & (test_data["Occupation"]>18.5) & (test_data["Age"]<=47.5)'
p2278
sba(i__main__
Decision_Tree
p2279
(dp2280
g2
(lp2281
Nasg22
g23
sg24
g25
(g29
S'\x04\x00\x00\x00\x00\x00\x00\x00'
p2282
tp2283
Rp2284
sg35
S'(test_data["Year"]>1977.5) & (test_data["Genre"].str.contains("Comedy")) & (test_data["Gender"] == "M") & (test_data["Occupation"]>18.5) & (test_data["Age"]>47.5)'
p2285
sbasg22
g123
sg24
g25
(g71
S'\x00\x00\x00\x00\x00\xc0G@'
p2286
tp2287
Rp2288
sg35
S'(test_data["Year"]>1977.5) & (test_data["Genre"].str.contains("Comedy")) & (test_data["Gender"] == "M") & (test_data["Occupation"]>18.5)'
p2289
sbasg22
g68
sg24
g25
(g71
S'\x00\x00\x00\x00\x00\x802@'
p2290
tp2291
Rp2292
sg35
S'(test_data["Year"]>1977.5) & (test_data["Genre"].str.contains("Comedy")) & (test_data["Gender"] == "M")'
p2293
sba(i__main__
Decision_Tree
p2294
(dp2295
g2
(lp2296
(i__main__
Decision_Tree
p2297
(dp2298
g2
(lp2299
(i__main__
Decision_Tree
p2300
(dp2301
g2
(lp2302
Nasg22
g23
sg24
g25
(g29
S'\x04\x00\x00\x00\x00\x00\x00\x00'
p2303
tp2304
Rp2305
sg35
S'(test_data["Year"]>1977.5) & (test_data["Genre"].str.contains("Comedy")) & (test_data["Gender"] == "F") & (test_data["Age"]<=21.5) & (test_data["Occupation"]<=19.5)'
p2306
sba(i__main__
Decision_Tree
p2307
(dp2308
g2
(lp2309
Nasg22
g23
sg24
g25
(g29
S'\x03\x00\x00\x00\x00\x00\x00\x00'
p2310
tp2311
Rp2312
sg35
S'(test_data["Year"]>1977.5) & (test_data["Genre"].str.contains("Comedy")) & (test_data["Gender"] == "F") & (test_data["Age"]<=21.5) & (test_data["Occupation"]>19.5)'
p2313
sbasg22
g68
sg24
g25
(g71
S'\x00\x00\x00\x00\x00\x803@'
p2314
tp2315
Rp2316
sg35
S'(test_data["Year"]>1977.5) & (test_data["Genre"].str.contains("Comedy")) & (test_data["Gender"] == "F") & (test_data["Age"]<=21.5)'
p2317
sba(i__main__
Decision_Tree
p2318
(dp2319
g2
(lp2320
(i__main__
Decision_Tree
p2321
(dp2322
g2
(lp2323
Nasg22
g23
sg24
g25
(g29
S'\x04\x00\x00\x00\x00\x00\x00\x00'
p2324
tp2325
Rp2326
sg35
S'(test_data["Year"]>1977.5) & (test_data["Genre"].str.contains("Comedy")) & (test_data["Gender"] == "F") & (test_data["Age"]>21.5) & (test_data["Occupation"]<=0.5)'
p2327
sba(i__main__
Decision_Tree
p2328
(dp2329
g2
(lp2330
Nasg22
g23
sg24
g25
(g29
S'\x04\x00\x00\x00\x00\x00\x00\x00'
p2331
tp2332
Rp2333
sg35
S'(test_data["Year"]>1977.5) & (test_data["Genre"].str.contains("Comedy")) & (test_data["Gender"] == "F") & (test_data["Age"]>21.5) & (test_data["Occupation"]>0.5)'
p2334
sbasg22
g68
sg24
g25
(g71
S'\x00\x00\x00\x00\x00\x00\xe0?'
p2335
tp2336
Rp2337
sg35
S'(test_data["Year"]>1977.5) & (test_data["Genre"].str.contains("Comedy")) & (test_data["Gender"] == "F") & (test_data["Age"]>21.5)'
p2338
sbasg22
g123
sg24
g25
(g71
S'\x00\x00\x00\x00\x00\x805@'
p2339
tp2340
Rp2341
sg35
S'(test_data["Year"]>1977.5) & (test_data["Genre"].str.contains("Comedy")) & (test_data["Gender"] == "F")'
p2342
sbasg22
g44
sg24
(lp2343
g46
ag47
asg35
S'(test_data["Year"]>1977.5) & (test_data["Genre"].str.contains("Comedy"))'
p2344
sba(i__main__
Decision_Tree
p2345
(dp2346
g2
(lp2347
(i__main__
Decision_Tree
p2348
(dp2349
g2
(lp2350
(i__main__
Decision_Tree
p2351
(dp2352
g2
(lp2353
(i__main__
Decision_Tree
p2354
(dp2355
g2
(lp2356
Nasg22
g23
sg24
g25
(g29
S'\x04\x00\x00\x00\x00\x00\x00\x00'
p2357
tp2358
Rp2359
sg35
S'(test_data["Year"]>1977.5) & (test_data["Genre"].str.contains("Crime")) & (test_data["Age"]<=21.5) & (test_data["Gender"] == "M") & (test_data["Occupation"]<=1.5)'
p2360
sba(i__main__
Decision_Tree
p2361
(dp2362
g2
(lp2363
Nasg22
g23
sg24
g25
(g29
S'\x04\x00\x00\x00\x00\x00\x00\x00'
p2364
tp2365
Rp2366
sg35
S'(test_data["Year"]>1977.5) & (test_data["Genre"].str.contains("Crime")) & (test_data["Age"]<=21.5) & (test_data["Gender"] == "M") & (test_data["Occupation"]>1.5)'
p2367
sbasg22
g68
sg24
g25
(g71
S'\x00\x00\x00\x00\x00\x00\xf8?'
p2368
tp2369
Rp2370
sg35
S'(test_data["Year"]>1977.5) & (test_data["Genre"].str.contains("Crime")) & (test_data["Age"]<=21.5) & (test_data["Gender"] == "M")'
p2371
sba(i__main__
Decision_Tree
p2372
(dp2373
g2
(lp2374
(i__main__
Decision_Tree
p2375
(dp2376
g2
(lp2377
Nasg22
g23
sg24
g25
(g29
S'\x04\x00\x00\x00\x00\x00\x00\x00'
p2378
tp2379
Rp2380
sg35
S'(test_data["Year"]>1977.5) & (test_data["Genre"].str.contains("Crime")) & (test_data["Age"]<=21.5) & (test_data["Gender"] == "F") & (test_data["Occupation"]<=15.5)'
p2381
sba(i__main__
Decision_Tree
p2382
(dp2383
g2
(lp2384
Nasg22
g23
sg24
g25
(g29
S'\x04\x00\x00\x00\x00\x00\x00\x00'
p2385
tp2386
Rp2387
sg35
S'(test_data["Year"]>1977.5) & (test_data["Genre"].str.contains("Crime")) & (test_data["Age"]<=21.5) & (test_data["Gender"] == "F") & (test_data["Occupation"]>15.5)'
p2388
sbasg22
g68
sg24
g25
(g71
S'\x00\x00\x00\x00\x00\x00/@'
p2389
tp2390
Rp2391
sg35
S'(test_data["Year"]>1977.5) & (test_data["Genre"].str.contains("Crime")) & (test_data["Age"]<=21.5) & (test_data["Gender"] == "F")'
p2392
sbasg22
g44
sg24
(lp2393
g46
ag47
asg35
S'(test_data["Year"]>1977.5) & (test_data["Genre"].str.contains("Crime")) & (test_data["Age"]<=21.5)'
p2394
sba(i__main__
Decision_Tree
p2395
(dp2396
g2
(lp2397
(i__main__
Decision_Tree
p2398
(dp2399
g2
(lp2400
(i__main__
Decision_Tree
p2401
(dp2402
g2
(lp2403
Nasg22
g23
sg24
g25
(g29
S'\x04\x00\x00\x00\x00\x00\x00\x00'
p2404
tp2405
Rp2406
sg35
S'(test_data["Year"]>1977.5) & (test_data["Genre"].str.contains("Crime")) & (test_data["Age"]>21.5) & (test_data["Occupation"]<=4.5) & (test_data["Gender"] == "M")'
p2407
sba(i__main__
Decision_Tree
p2408
(dp2409
g2
(lp2410
Nasg22
g23
sg24
g25
(g29
S'\x04\x00\x00\x00\x00\x00\x00\x00'
p2411
tp2412
Rp2413
sg35
S'(test_data["Year"]>1977.5) & (test_data["Genre"].str.contains("Crime")) & (test_data["Age"]>21.5) & (test_data["Occupation"]<=4.5) & (test_data["Gender"] == "F")'
p2414
sbasg22
g44
sg24
(lp2415
g46
ag47
asg35
S'(test_data["Year"]>1977.5) & (test_data["Genre"].str.contains("Crime")) & (test_data["Age"]>21.5) & (test_data["Occupation"]<=4.5)'
p2416
sba(i__main__
Decision_Tree
p2417
(dp2418
g2
(lp2419
(i__main__
Decision_Tree
p2420
(dp2421
g2
(lp2422
Nasg22
g23
sg24
g25
(g29
S'\x04\x00\x00\x00\x00\x00\x00\x00'
p2423
tp2424
Rp2425
sg35
S'(test_data["Year"]>1977.5) & (test_data["Genre"].str.contains("Crime")) & (test_data["Age"]>21.5) & (test_data["Occupation"]>4.5) & (test_data["Gender"] == "M")'
p2426
sba(i__main__
Decision_Tree
p2427
(dp2428
g2
(lp2429
Nasg22
g23
sg24
g25
(g29
S'\x04\x00\x00\x00\x00\x00\x00\x00'
p2430
tp2431
Rp2432
sg35
S'(test_data["Year"]>1977.5) & (test_data["Genre"].str.contains("Crime")) & (test_data["Age"]>21.5) & (test_data["Occupation"]>4.5) & (test_data["Gender"] == "F")'
p2433
sbasg22
g44
sg24
(lp2434
g46
ag47
asg35
S'(test_data["Year"]>1977.5) & (test_data["Genre"].str.contains("Crime")) & (test_data["Age"]>21.5) & (test_data["Occupation"]>4.5)'
p2435
sbasg22
g68
sg24
g25
(g71
S'\x00\x00\x00\x00\x00\x00\x12@'
p2436
tp2437
Rp2438
sg35
S'(test_data["Year"]>1977.5) & (test_data["Genre"].str.contains("Crime")) & (test_data["Age"]>21.5)'
p2439
sbasg22
g123
sg24
g25
(g71
S'\x00\x00\x00\x00\x00\x805@'
p2440
tp2441
Rp2442
sg35
S'(test_data["Year"]>1977.5) & (test_data["Genre"].str.contains("Crime"))'
p2443
sba(i__main__
Decision_Tree
p2444
(dp2445
g2
(lp2446
(i__main__
Decision_Tree
p2447
(dp2448
g2
(lp2449
(i__main__
Decision_Tree
p2450
(dp2451
g2
(lp2452
(i__main__
Decision_Tree
p2453
(dp2454
g2
(lp2455
Nasg22
g23
sg24
g25
(g29
S'\x04\x00\x00\x00\x00\x00\x00\x00'
p2456
tp2457
Rp2458
sg35
S'(test_data["Year"]>1977.5) & (test_data["Genre"].str.contains("Documentary")) & (test_data["Gender"] == "M") & (test_data["Occupation"]<=0.5) & (test_data["Age"]<=47.5)'
p2459
sba(i__main__
Decision_Tree
p2460
(dp2461
g2
(lp2462
Nasg22
g23
sg24
g25
(g29
S'\x01\x00\x00\x00\x00\x00\x00\x00'
p2463
tp2464
Rp2465
sg35
S'(test_data["Year"]>1977.5) & (test_data["Genre"].str.contains("Documentary")) & (test_data["Gender"] == "M") & (test_data["Occupation"]<=0.5) & (test_data["Age"]>47.5)'
p2466
sbasg22
g123
sg24
g25
(g71
S'\x00\x00\x00\x00\x00\xc0G@'
p2467
tp2468
Rp2469
sg35
S'(test_data["Year"]>1977.5) & (test_data["Genre"].str.contains("Documentary")) & (test_data["Gender"] == "M") & (test_data["Occupation"]<=0.5)'
p2470
sba(i__main__
Decision_Tree
p2471
(dp2472
g2
(lp2473
(i__main__
Decision_Tree
p2474
(dp2475
g2
(lp2476
Nasg22
g23
sg24
g25
(g29
S'\x05\x00\x00\x00\x00\x00\x00\x00'
p2477
tp2478
Rp2479
sg35
S'(test_data["Year"]>1977.5) & (test_data["Genre"].str.contains("Documentary")) & (test_data["Gender"] == "M") & (test_data["Occupation"]>0.5) & (test_data["Age"]<=40.0)'
p2480
sba(i__main__
Decision_Tree
p2481
(dp2482
g2
(lp2483
Nasg22
g23
sg24
g25
(g29
S'\x04\x00\x00\x00\x00\x00\x00\x00'
p2484
tp2485
Rp2486
sg35
S'(test_data["Year"]>1977.5) & (test_data["Genre"].str.contains("Documentary")) & (test_data["Gender"] == "M") & (test_data["Occupation"]>0.5) & (test_data["Age"]>40.0)'
p2487
sbasg22
g123
sg24
g25
(g71
S'\x00\x00\x00\x00\x00\x00D@'
p2488
tp2489
Rp2490
sg35
S'(test_data["Year"]>1977.5) & (test_data["Genre"].str.contains("Documentary")) & (test_data["Gender"] == "M") & (test_data["Occupation"]>0.5)'
p2491
sbasg22
g68
sg24
g25
(g71
S'\x00\x00\x00\x00\x00\x00\xe0?'
p2492
tp2493
Rp2494
sg35
S'(test_data["Year"]>1977.5) & (test_data["Genre"].str.contains("Documentary")) & (test_data["Gender"] == "M")'
p2495
sba(i__main__
Decision_Tree
p2496
(dp2497
g2
(lp2498
(i__main__
Decision_Tree
p2499
(dp2500
g2
(lp2501
(i__main__
Decision_Tree
p2502
(dp2503
g2
(lp2504
Nasg22
g23
sg24
g25
(g29
S'\x04\x00\x00\x00\x00\x00\x00\x00'
p2505
tp2506
Rp2507
sg35
S'(test_data["Year"]>1977.5) & (test_data["Genre"].str.contains("Documentary")) & (test_data["Gender"] == "F") & (test_data["Occupation"]<=19.5) & (test_data["Age"]<=9.5)'
p2508
sba(i__main__
Decision_Tree
p2509
(dp2510
g2
(lp2511
Nasg22
g23
sg24
g25
(g29
S'\x04\x00\x00\x00\x00\x00\x00\x00'
p2512
tp2513
Rp2514
sg35
S'(test_data["Year"]>1977.5) & (test_data["Genre"].str.contains("Documentary")) & (test_data["Gender"] == "F") & (test_data["Occupation"]<=19.5) & (test_data["Age"]>9.5)'
p2515
sbasg22
g123
sg24
g25
(g71
S'\x00\x00\x00\x00\x00\x00#@'
p2516
tp2517
Rp2518
sg35
S'(test_data["Year"]>1977.5) & (test_data["Genre"].str.contains("Documentary")) & (test_data["Gender"] == "F") & (test_data["Occupation"]<=19.5)'
p2519
sba(i__main__
Decision_Tree
p2520
(dp2521
g2
(lp2522
(i__main__
Decision_Tree
p2523
(dp2524
g2
(lp2525
Nasg22
g23
sg24
g25
(g29
S'\x04\x00\x00\x00\x00\x00\x00\x00'
p2526
tp2527
Rp2528
sg35
S'(test_data["Year"]>1977.5) & (test_data["Genre"].str.contains("Documentary")) & (test_data["Gender"] == "F") & (test_data["Occupation"]>19.5) & (test_data["Age"]<=30.0)'
p2529
sba(i__main__
Decision_Tree
p2530
(dp2531
g2
(lp2532
Nasg22
g23
sg24
g25
(g29
S'\x05\x00\x00\x00\x00\x00\x00\x00'
p2533
tp2534
Rp2535
sg35
S'(test_data["Year"]>1977.5) & (test_data["Genre"].str.contains("Documentary")) & (test_data["Gender"] == "F") & (test_data["Occupation"]>19.5) & (test_data["Age"]>30.0)'
p2536
sbasg22
g123
sg24
g25
(g71
S'\x00\x00\x00\x00\x00\x00>@'
p2537
tp2538
Rp2539
sg35
S'(test_data["Year"]>1977.5) & (test_data["Genre"].str.contains("Documentary")) & (test_data["Gender"] == "F") & (test_data["Occupation"]>19.5)'
p2540
sbasg22
g68
sg24
g25
(g71
S'\x00\x00\x00\x00\x00\x803@'
p2541
tp2542
Rp2543
sg35
S'(test_data["Year"]>1977.5) & (test_data["Genre"].str.contains("Documentary")) & (test_data["Gender"] == "F")'
p2544
sbasg22
g44
sg24
(lp2545
g46
ag47
asg35
S'(test_data["Year"]>1977.5) & (test_data["Genre"].str.contains("Documentary"))'
p2546
sba(i__main__
Decision_Tree
p2547
(dp2548
g2
(lp2549
(i__main__
Decision_Tree
p2550
(dp2551
g2
(lp2552
(i__main__
Decision_Tree
p2553
(dp2554
g2
(lp2555
(i__main__
Decision_Tree
p2556
(dp2557
g2
(lp2558
Nasg22
g23
sg24
g25
(g29
S'\x04\x00\x00\x00\x00\x00\x00\x00'
p2559
tp2560
Rp2561
sg35
S'(test_data["Year"]>1977.5) & (test_data["Genre"].str.contains("Drama")) & (test_data["Age"]<=30.0) & (test_data["Occupation"]<=18.5) & (test_data["Gender"] == "M")'
p2562
sba(i__main__
Decision_Tree
p2563
(dp2564
g2
(lp2565
Nasg22
g23
sg24
g25
(g29
S'\x04\x00\x00\x00\x00\x00\x00\x00'
p2566
tp2567
Rp2568
sg35
S'(test_data["Year"]>1977.5) & (test_data["Genre"].str.contains("Drama")) & (test_data["Age"]<=30.0) & (test_data["Occupation"]<=18.5) & (test_data["Gender"] == "F")'
p2569
sbasg22
g44
sg24
(lp2570
g46
ag47
asg35
S'(test_data["Year"]>1977.5) & (test_data["Genre"].str.contains("Drama")) & (test_data["Age"]<=30.0) & (test_data["Occupation"]<=18.5)'
p2571
sba(i__main__
Decision_Tree
p2572
(dp2573
g2
(lp2574
(i__main__
Decision_Tree
p2575
(dp2576
g2
(lp2577
Nasg22
g23
sg24
g25
(g29
S'\x04\x00\x00\x00\x00\x00\x00\x00'
p2578
tp2579
Rp2580
sg35
S'(test_data["Year"]>1977.5) & (test_data["Genre"].str.contains("Drama")) & (test_data["Age"]<=30.0) & (test_data["Occupation"]>18.5) & (test_data["Gender"] == "M")'
p2581
sba(i__main__
Decision_Tree
p2582
(dp2583
g2
(lp2584
Nasg22
g23
sg24
g25
(g29
S'\x04\x00\x00\x00\x00\x00\x00\x00'
p2585
tp2586
Rp2587
sg35
S'(test_data["Year"]>1977.5) & (test_data["Genre"].str.contains("Drama")) & (test_data["Age"]<=30.0) & (test_data["Occupation"]>18.5) & (test_data["Gender"] == "F")'
p2588
sbasg22
g44
sg24
(lp2589
g46
ag47
asg35
S'(test_data["Year"]>1977.5) & (test_data["Genre"].str.contains("Drama")) & (test_data["Age"]<=30.0) & (test_data["Occupation"]>18.5)'
p2590
sbasg22
g68
sg24
g25
(g71
S'\x00\x00\x00\x00\x00\x802@'
p2591
tp2592
Rp2593
sg35
S'(test_data["Year"]>1977.5) & (test_data["Genre"].str.contains("Drama")) & (test_data["Age"]<=30.0)'
p2594
sba(i__main__
Decision_Tree
p2595
(dp2596
g2
(lp2597
(i__main__
Decision_Tree
p2598
(dp2599
g2
(lp2600
(i__main__
Decision_Tree
p2601
(dp2602
g2
(lp2603
Nasg22
g23
sg24
g25
(g29
S'\x04\x00\x00\x00\x00\x00\x00\x00'
p2604
tp2605
Rp2606
sg35
S'(test_data["Year"]>1977.5) & (test_data["Genre"].str.contains("Drama")) & (test_data["Age"]>30.0) & (test_data["Gender"] == "M") & (test_data["Occupation"]<=0.5)'
p2607
sba(i__main__
Decision_Tree
p2608
(dp2609
g2
(lp2610
Nasg22
g23
sg24
g25
(g29
S'\x04\x00\x00\x00\x00\x00\x00\x00'
p2611
tp2612
Rp2613
sg35
S'(test_data["Year"]>1977.5) & (test_data["Genre"].str.contains("Drama")) & (test_data["Age"]>30.0) & (test_data["Gender"] == "M") & (test_data["Occupation"]>0.5)'
p2614
sbasg22
g68
sg24
g25
(g71
S'\x00\x00\x00\x00\x00\x00\xe0?'
p2615
tp2616
Rp2617
sg35
S'(test_data["Year"]>1977.5) & (test_data["Genre"].str.contains("Drama")) & (test_data["Age"]>30.0) & (test_data["Gender"] == "M")'
p2618
sba(i__main__
Decision_Tree
p2619
(dp2620
g2
(lp2621
(i__main__
Decision_Tree
p2622
(dp2623
g2
(lp2624
Nasg22
g23
sg24
g25
(g29
S'\x04\x00\x00\x00\x00\x00\x00\x00'
p2625
tp2626
Rp2627
sg35
S'(test_data["Year"]>1977.5) & (test_data["Genre"].str.contains("Drama")) & (test_data["Age"]>30.0) & (test_data["Gender"] == "F") & (test_data["Occupation"]<=0.5)'
p2628
sba(i__main__
Decision_Tree
p2629
(dp2630
g2
(lp2631
Nasg22
g23
sg24
g25
(g29
S'\x04\x00\x00\x00\x00\x00\x00\x00'
p2632
tp2633
Rp2634
sg35
S'(test_data["Year"]>1977.5) & (test_data["Genre"].str.contains("Drama")) & (test_data["Age"]>30.0) & (test_data["Gender"] == "F") & (test_data["Occupation"]>0.5)'
p2635
sbasg22
g68
sg24
g25
(g71
S'\x00\x00\x00\x00\x00\x00\xe0?'
p2636
tp2637
Rp2638
sg35
S'(test_data["Year"]>1977.5) & (test_data["Genre"].str.contains("Drama")) & (test_data["Age"]>30.0) & (test_data["Gender"] == "F")'
p2639
sbasg22
g44
sg24
(lp2640
g46
ag47
asg35
S'(test_data["Year"]>1977.5) & (test_data["Genre"].str.contains("Drama")) & (test_data["Age"]>30.0)'
p2641
sbasg22
g123
sg24
g25
(g71
S'\x00\x00\x00\x00\x00\x00>@'
p2642
tp2643
Rp2644
sg35
S'(test_data["Year"]>1977.5) & (test_data["Genre"].str.contains("Drama"))'
p2645
sba(i__main__
Decision_Tree
p2646
(dp2647
g2
(lp2648
(i__main__
Decision_Tree
p2649
(dp2650
g2
(lp2651
(i__main__
Decision_Tree
p2652
(dp2653
g2
(lp2654
(i__main__
Decision_Tree
p2655
(dp2656
g2
(lp2657
Nasg22
g23
sg24
g25
(g29
S'\x04\x00\x00\x00\x00\x00\x00\x00'
p2658
tp2659
Rp2660
sg35
S'(test_data["Year"]>1977.5) & (test_data["Genre"].str.contains("Fantasy")) & (test_data["Age"]<=21.5) & (test_data["Occupation"]<=18.5) & (test_data["Gender"] == "M")'
p2661
sba(i__main__
Decision_Tree
p2662
(dp2663
g2
(lp2664
Nasg22
g23
sg24
g25
(g29
S'\x03\x00\x00\x00\x00\x00\x00\x00'
p2665
tp2666
Rp2667
sg35
S'(test_data["Year"]>1977.5) & (test_data["Genre"].str.contains("Fantasy")) & (test_data["Age"]<=21.5) & (test_data["Occupation"]<=18.5) & (test_data["Gender"] == "F")'
p2668
sbasg22
g44
sg24
(lp2669
g46
ag47
asg35
S'(test_data["Year"]>1977.5) & (test_data["Genre"].str.contains("Fantasy")) & (test_data["Age"]<=21.5) & (test_data["Occupation"]<=18.5)'
p2670
sba(i__main__
Decision_Tree
p2671
(dp2672
g2
(lp2673
(i__main__
Decision_Tree
p2674
(dp2675
g2
(lp2676
Nasg22
g23
sg24
g25
(g29
S'\x03\x00\x00\x00\x00\x00\x00\x00'
p2677
tp2678
Rp2679
sg35
S'(test_data["Year"]>1977.5) & (test_data["Genre"].str.contains("Fantasy")) & (test_data["Age"]<=21.5) & (test_data["Occupation"]>18.5) & (test_data["Gender"] == "M")'
p2680
sba(i__main__
Decision_Tree
p2681
(dp2682
g2
(lp2683
Nasg22
g23
sg24
g25
(g29
S'\x03\x00\x00\x00\x00\x00\x00\x00'
p2684
tp2685
Rp2686
sg35
S'(test_data["Year"]>1977.5) & (test_data["Genre"].str.contains("Fantasy")) & (test_data["Age"]<=21.5) & (test_data["Occupation"]>18.5) & (test_data["Gender"] == "F")'
p2687
sbasg22
g44
sg24
(lp2688
g46
ag47
asg35
S'(test_data["Year"]>1977.5) & (test_data["Genre"].str.contains("Fantasy")) & (test_data["Age"]<=21.5) & (test_data["Occupation"]>18.5)'
p2689
sbasg22
g68
sg24
g25
(g71
S'\x00\x00\x00\x00\x00\x802@'
p2690
tp2691
Rp2692
sg35
S'(test_data["Year"]>1977.5) & (test_data["Genre"].str.contains("Fantasy")) & (test_data["Age"]<=21.5)'
p2693
sba(i__main__
Decision_Tree
p2694
(dp2695
g2
(lp2696
(i__main__
Decision_Tree
p2697
(dp2698
g2
(lp2699
(i__main__
Decision_Tree
p2700
(dp2701
g2
(lp2702
Nasg22
g23
sg24
g25
(g29
S'\x03\x00\x00\x00\x00\x00\x00\x00'
p2703
tp2704
Rp2705
sg35
S'(test_data["Year"]>1977.5) & (test_data["Genre"].str.contains("Fantasy")) & (test_data["Age"]>21.5) & (test_data["Gender"] == "M") & (test_data["Occupation"]<=4.5)'
p2706
sba(i__main__
Decision_Tree
p2707
(dp2708
g2
(lp2709
Nasg22
g23
sg24
g25
(g29
S'\x04\x00\x00\x00\x00\x00\x00\x00'
p2710
tp2711
Rp2712
sg35
S'(test_data["Year"]>1977.5) & (test_data["Genre"].str.contains("Fantasy")) & (test_data["Age"]>21.5) & (test_data["Gender"] == "M") & (test_data["Occupation"]>4.5)'
p2713
sbasg22
g68
sg24
g25
(g71
S'\x00\x00\x00\x00\x00\x00\x12@'
p2714
tp2715
Rp2716
sg35
S'(test_data["Year"]>1977.5) & (test_data["Genre"].str.contains("Fantasy")) & (test_data["Age"]>21.5) & (test_data["Gender"] == "M")'
p2717
sba(i__main__
Decision_Tree
p2718
(dp2719
g2
(lp2720
(i__main__
Decision_Tree
p2721
(dp2722
g2
(lp2723
Nasg22
g23
sg24
g25
(g29
S'\x04\x00\x00\x00\x00\x00\x00\x00'
p2724
tp2725
Rp2726
sg35
S'(test_data["Year"]>1977.5) & (test_data["Genre"].str.contains("Fantasy")) & (test_data["Age"]>21.5) & (test_data["Gender"] == "F") & (test_data["Occupation"]<=4.5)'
p2727
sba(i__main__
Decision_Tree
p2728
(dp2729
g2
(lp2730
Nasg22
g23
sg24
g25
(g29
S'\x04\x00\x00\x00\x00\x00\x00\x00'
p2731
tp2732
Rp2733
sg35
S'(test_data["Year"]>1977.5) & (test_data["Genre"].str.contains("Fantasy")) & (test_data["Age"]>21.5) & (test_data["Gender"] == "F") & (test_data["Occupation"]>4.5)'
p2734
sbasg22
g68
sg24
g25
(g71
S'\x00\x00\x00\x00\x00\x00\x12@'
p2735
tp2736
Rp2737
sg35
S'(test_data["Year"]>1977.5) & (test_data["Genre"].str.contains("Fantasy")) & (test_data["Age"]>21.5) & (test_data["Gender"] == "F")'
p2738
sbasg22
g44
sg24
(lp2739
g46
ag47
asg35
S'(test_data["Year"]>1977.5) & (test_data["Genre"].str.contains("Fantasy")) & (test_data["Age"]>21.5)'
p2740
sbasg22
g123
sg24
g25
(g71
S'\x00\x00\x00\x00\x00\x805@'
p2741
tp2742
Rp2743
sg35
S'(test_data["Year"]>1977.5) & (test_data["Genre"].str.contains("Fantasy"))'
p2744
sba(i__main__
Decision_Tree
p2745
(dp2746
g2
(lp2747
(i__main__
Decision_Tree
p2748
(dp2749
g2
(lp2750
(i__main__
Decision_Tree
p2751
(dp2752
g2
(lp2753
(i__main__
Decision_Tree
p2754
(dp2755
g2
(lp2756
Nasg22
g23
sg24
g25
(g29
S'\x04\x00\x00\x00\x00\x00\x00\x00'
p2757
tp2758
Rp2759
sg35
S'(test_data["Year"]>1977.5) & (test_data["Genre"].str.contains("Film-Noir")) & (test_data["Occupation"]<=9.5) & (test_data["Age"]<=30.0) & (test_data["Gender"] == "M")'
p2760
sba(i__main__
Decision_Tree
p2761
(dp2762
g2
(lp2763
Nasg22
g23
sg24
g25
(g29
S'\x04\x00\x00\x00\x00\x00\x00\x00'
p2764
tp2765
Rp2766
sg35
S'(test_data["Year"]>1977.5) & (test_data["Genre"].str.contains("Film-Noir")) & (test_data["Occupation"]<=9.5) & (test_data["Age"]<=30.0) & (test_data["Gender"] == "F")'
p2767
sbasg22
g44
sg24
(lp2768
g46
ag47
asg35
S'(test_data["Year"]>1977.5) & (test_data["Genre"].str.contains("Film-Noir")) & (test_data["Occupation"]<=9.5) & (test_data["Age"]<=30.0)'
p2769
sba(i__main__
Decision_Tree
p2770
(dp2771
g2
(lp2772
(i__main__
Decision_Tree
p2773
(dp2774
g2
(lp2775
Nasg22
g23
sg24
g25
(g29
S'\x04\x00\x00\x00\x00\x00\x00\x00'
p2776
tp2777
Rp2778
sg35
S'(test_data["Year"]>1977.5) & (test_data["Genre"].str.contains("Film-Noir")) & (test_data["Occupation"]<=9.5) & (test_data["Age"]>30.0) & (test_data["Gender"] == "M")'
p2779
sba(i__main__
Decision_Tree
p2780
(dp2781
g2
(lp2782
Nasg22
g23
sg24
g25
(g29
S'\x04\x00\x00\x00\x00\x00\x00\x00'
p2783
tp2784
Rp2785
sg35
S'(test_data["Year"]>1977.5) & (test_data["Genre"].str.contains("Film-Noir")) & (test_data["Occupation"]<=9.5) & (test_data["Age"]>30.0) & (test_data["Gender"] == "F")'
p2786
sbasg22
g44
sg24
(lp2787
g46
ag47
asg35
S'(test_data["Year"]>1977.5) & (test_data["Genre"].str.contains("Film-Noir")) & (test_data["Occupation"]<=9.5) & (test_data["Age"]>30.0)'
p2788
sbasg22
g123
sg24
g25
(g71
S'\x00\x00\x00\x00\x00\x00>@'
p2789
tp2790
Rp2791
sg35
S'(test_data["Year"]>1977.5) & (test_data["Genre"].str.contains("Film-Noir")) & (test_data["Occupation"]<=9.5)'
p2792
sba(i__main__
Decision_Tree
p2793
(dp2794
g2
(lp2795
(i__main__
Decision_Tree
p2796
(dp2797
g2
(lp2798
(i__main__
Decision_Tree
p2799
(dp2800
g2
(lp2801
Nasg22
g23
sg24
g25
(g29
S'\x05\x00\x00\x00\x00\x00\x00\x00'
p2802
tp2803
Rp2804
sg35
S'(test_data["Year"]>1977.5) & (test_data["Genre"].str.contains("Film-Noir")) & (test_data["Occupation"]>9.5) & (test_data["Age"]<=9.5) & (test_data["Gender"] == "M")'
p2805
sba(i__main__
Decision_Tree
p2806
(dp2807
g2
(lp2808
Nasg22
g23
sg24
g25
(g29
S'\x05\x00\x00\x00\x00\x00\x00\x00'
p2809
tp2810
Rp2811
sg35
S'(test_data["Year"]>1977.5) & (test_data["Genre"].str.contains("Film-Noir")) & (test_data["Occupation"]>9.5) & (test_data["Age"]<=9.5) & (test_data["Gender"] == "F")'
p2812
sbasg22
g44
sg24
(lp2813
g46
ag47
asg35
S'(test_data["Year"]>1977.5) & (test_data["Genre"].str.contains("Film-Noir")) & (test_data["Occupation"]>9.5) & (test_data["Age"]<=9.5)'
p2814
sba(i__main__
Decision_Tree
p2815
(dp2816
g2
(lp2817
(i__main__
Decision_Tree
p2818
(dp2819
g2
(lp2820
Nasg22
g23
sg24
g25
(g29
S'\x04\x00\x00\x00\x00\x00\x00\x00'
p2821
tp2822
Rp2823
sg35
S'(test_data["Year"]>1977.5) & (test_data["Genre"].str.contains("Film-Noir")) & (test_data["Occupation"]>9.5) & (test_data["Age"]>9.5) & (test_data["Gender"] == "M")'
p2824
sba(i__main__
Decision_Tree
p2825
(dp2826
g2
(lp2827
Nasg22
g23
sg24
g25
(g29
S'\x04\x00\x00\x00\x00\x00\x00\x00'
p2828
tp2829
Rp2830
sg35
S'(test_data["Year"]>1977.5) & (test_data["Genre"].str.contains("Film-Noir")) & (test_data["Occupation"]>9.5) & (test_data["Age"]>9.5) & (test_data["Gender"] == "F")'
p2831
sbasg22
g44
sg24
(lp2832
g46
ag47
asg35
S'(test_data["Year"]>1977.5) & (test_data["Genre"].str.contains("Film-Noir")) & (test_data["Occupation"]>9.5) & (test_data["Age"]>9.5)'
p2833
sbasg22
g123
sg24
g25
(g71
S'\x00\x00\x00\x00\x00\x00#@'
p2834
tp2835
Rp2836
sg35
S'(test_data["Year"]>1977.5) & (test_data["Genre"].str.contains("Film-Noir")) & (test_data["Occupation"]>9.5)'
p2837
sbasg22
g68
sg24
g25
(g71
S'\x00\x00\x00\x00\x00\x00#@'
p2838
tp2839
Rp2840
sg35
S'(test_data["Year"]>1977.5) & (test_data["Genre"].str.contains("Film-Noir"))'
p2841
sba(i__main__
Decision_Tree
p2842
(dp2843
g2
(lp2844
(i__main__
Decision_Tree
p2845
(dp2846
g2
(lp2847
(i__main__
Decision_Tree
p2848
(dp2849
g2
(lp2850
(i__main__
Decision_Tree
p2851
(dp2852
g2
(lp2853
Nasg22
g23
sg24
g25
(g29
S'\x03\x00\x00\x00\x00\x00\x00\x00'
p2854
tp2855
Rp2856
sg35
S'(test_data["Year"]>1977.5) & (test_data["Genre"].str.contains("Horror")) & (test_data["Age"]<=47.5) & (test_data["Occupation"]<=11.5) & (test_data["Gender"] == "M")'
p2857
sba(i__main__
Decision_Tree
p2858
(dp2859
g2
(lp2860
Nasg22
g23
sg24
g25
(g29
S'\x03\x00\x00\x00\x00\x00\x00\x00'
p2861
tp2862
Rp2863
sg35
S'(test_data["Year"]>1977.5) & (test_data["Genre"].str.contains("Horror")) & (test_data["Age"]<=47.5) & (test_data["Occupation"]<=11.5) & (test_data["Gender"] == "F")'
p2864
sbasg22
g44
sg24
(lp2865
g46
ag47
asg35
S'(test_data["Year"]>1977.5) & (test_data["Genre"].str.contains("Horror")) & (test_data["Age"]<=47.5) & (test_data["Occupation"]<=11.5)'
p2866
sba(i__main__
Decision_Tree
p2867
(dp2868
g2
(lp2869
(i__main__
Decision_Tree
p2870
(dp2871
g2
(lp2872
Nasg22
g23
sg24
g25
(g29
S'\x03\x00\x00\x00\x00\x00\x00\x00'
p2873
tp2874
Rp2875
sg35
S'(test_data["Year"]>1977.5) & (test_data["Genre"].str.contains("Horror")) & (test_data["Age"]<=47.5) & (test_data["Occupation"]>11.5) & (test_data["Gender"] == "M")'
p2876
sba(i__main__
Decision_Tree
p2877
(dp2878
g2
(lp2879
Nasg22
g23
sg24
g25
(g29
S'\x03\x00\x00\x00\x00\x00\x00\x00'
p2880
tp2881
Rp2882
sg35
S'(test_data["Year"]>1977.5) & (test_data["Genre"].str.contains("Horror")) & (test_data["Age"]<=47.5) & (test_data["Occupation"]>11.5) & (test_data["Gender"] == "F")'
p2883
sbasg22
g44
sg24
(lp2884
g46
ag47
asg35
S'(test_data["Year"]>1977.5) & (test_data["Genre"].str.contains("Horror")) & (test_data["Age"]<=47.5) & (test_data["Occupation"]>11.5)'
p2885
sbasg22
g68
sg24
g25
(g71
S"\x00\x00\x00\x00\x00\x00'@"
p2886
tp2887
Rp2888
sg35
S'(test_data["Year"]>1977.5) & (test_data["Genre"].str.contains("Horror")) & (test_data["Age"]<=47.5)'
p2889
sba(i__main__
Decision_Tree
p2890
(dp2891
g2
(lp2892
(i__main__
Decision_Tree
p2893
(dp2894
g2
(lp2895
(i__main__
Decision_Tree
p2896
(dp2897
g2
(lp2898
Nasg22
g23
sg24
g25
(g29
S'\x01\x00\x00\x00\x00\x00\x00\x00'
p2899
tp2900
Rp2901
sg35
S'(test_data["Year"]>1977.5) & (test_data["Genre"].str.contains("Horror")) & (test_data["Age"]>47.5) & (test_data["Occupation"]<=1.5) & (test_data["Gender"] == "M")'
p2902
sba(i__main__
Decision_Tree
p2903
(dp2904
g2
(lp2905
Nasg22
g23
sg24
g25
(g29
S'\x04\x00\x00\x00\x00\x00\x00\x00'
p2906
tp2907
Rp2908
sg35
S'(test_data["Year"]>1977.5) & (test_data["Genre"].str.contains("Horror")) & (test_data["Age"]>47.5) & (test_data["Occupation"]<=1.5) & (test_data["Gender"] == "F")'
p2909
sbasg22
g44
sg24
(lp2910
g46
ag47
asg35
S'(test_data["Year"]>1977.5) & (test_data["Genre"].str.contains("Horror")) & (test_data["Age"]>47.5) & (test_data["Occupation"]<=1.5)'
p2911
sba(i__main__
Decision_Tree
p2912
(dp2913
g2
(lp2914
(i__main__
Decision_Tree
p2915
(dp2916
g2
(lp2917
Nasg22
g23
sg24
g25
(g29
S'\x04\x00\x00\x00\x00\x00\x00\x00'
p2918
tp2919
Rp2920
sg35
S'(test_data["Year"]>1977.5) & (test_data["Genre"].str.contains("Horror")) & (test_data["Age"]>47.5) & (test_data["Occupation"]>1.5) & (test_data["Gender"] == "M")'
p2921
sba(i__main__
Decision_Tree
p2922
(dp2923
g2
(lp2924
Nasg22
g23
sg24
g25
(g29
S'\x03\x00\x00\x00\x00\x00\x00\x00'
p2925
tp2926
Rp2927
sg35
S'(test_data["Year"]>1977.5) & (test_data["Genre"].str.contains("Horror")) & (test_data["Age"]>47.5) & (test_data["Occupation"]>1.5) & (test_data["Gender"] == "F")'
p2928
sbasg22
g44
sg24
(lp2929
g46
ag47
asg35
S'(test_data["Year"]>1977.5) & (test_data["Genre"].str.contains("Horror")) & (test_data["Age"]>47.5) & (test_data["Occupation"]>1.5)'
p2930
sbasg22
g68
sg24
g25
(g71
S'\x00\x00\x00\x00\x00\x00\xf8?'
p2931
tp2932
Rp2933
sg35
S'(test_data["Year"]>1977.5) & (test_data["Genre"].str.contains("Horror")) & (test_data["Age"]>47.5)'
p2934
sbasg22
g123
sg24
g25
(g71
S'\x00\x00\x00\x00\x00\xc0G@'
p2935
tp2936
Rp2937
sg35
S'(test_data["Year"]>1977.5) & (test_data["Genre"].str.contains("Horror"))'
p2938
sba(i__main__
Decision_Tree
p2939
(dp2940
g2
(lp2941
(i__main__
Decision_Tree
p2942
(dp2943
g2
(lp2944
(i__main__
Decision_Tree
p2945
(dp2946
g2
(lp2947
(i__main__
Decision_Tree
p2948
(dp2949
g2
(lp2950
Nasg22
g23
sg24
g25
(g29
S'\x04\x00\x00\x00\x00\x00\x00\x00'
p2951
tp2952
Rp2953
sg35
S'(test_data["Year"]>1977.5) & (test_data["Genre"].str.contains("Musical")) & (test_data["Gender"] == "M") & (test_data["Age"]<=30.0) & (test_data["Occupation"]<=11.5)'
p2954
sba(i__main__
Decision_Tree
p2955
(dp2956
g2
(lp2957
Nasg22
g23
sg24
g25
(g29
S'\x04\x00\x00\x00\x00\x00\x00\x00'
p2958
tp2959
Rp2960
sg35
S'(test_data["Year"]>1977.5) & (test_data["Genre"].str.contains("Musical")) & (test_data["Gender"] == "M") & (test_data["Age"]<=30.0) & (test_data["Occupation"]>11.5)'
p2961
sbasg22
g68
sg24
g25
(g71
S"\x00\x00\x00\x00\x00\x00'@"
p2962
tp2963
Rp2964
sg35
S'(test_data["Year"]>1977.5) & (test_data["Genre"].str.contains("Musical")) & (test_data["Gender"] == "M") & (test_data["Age"]<=30.0)'
p2965
sba(i__main__
Decision_Tree
p2966
(dp2967
g2
(lp2968
(i__main__
Decision_Tree
p2969
(dp2970
g2
(lp2971
Nasg22
g23
sg24
g25
(g29
S'\x04\x00\x00\x00\x00\x00\x00\x00'
p2972
tp2973
Rp2974
sg35
S'(test_data["Year"]>1977.5) & (test_data["Genre"].str.contains("Musical")) & (test_data["Gender"] == "M") & (test_data["Age"]>30.0) & (test_data["Occupation"]<=7.5)'
p2975
sba(i__main__
Decision_Tree
p2976
(dp2977
g2
(lp2978
Nasg22
g23
sg24
g25
(g29
S'\x04\x00\x00\x00\x00\x00\x00\x00'
p2979
tp2980
Rp2981
sg35
S'(test_data["Year"]>1977.5) & (test_data["Genre"].str.contains("Musical")) & (test_data["Gender"] == "M") & (test_data["Age"]>30.0) & (test_data["Occupation"]>7.5)'
p2982
sbasg22
g68
sg24
g25
(g71
S'\x00\x00\x00\x00\x00\x00\x1e@'
p2983
tp2984
Rp2985
sg35
S'(test_data["Year"]>1977.5) & (test_data["Genre"].str.contains("Musical")) & (test_data["Gender"] == "M") & (test_data["Age"]>30.0)'
p2986
sbasg22
g123
sg24
g25
(g71
S'\x00\x00\x00\x00\x00\x00>@'
p2987
tp2988
Rp2989
sg35
S'(test_data["Year"]>1977.5) & (test_data["Genre"].str.contains("Musical")) & (test_data["Gender"] == "M")'
p2990
sba(i__main__
Decision_Tree
p2991
(dp2992
g2
(lp2993
(i__main__
Decision_Tree
p2994
(dp2995
g2
(lp2996
(i__main__
Decision_Tree
p2997
(dp2998
g2
(lp2999
Nasg22
g23
sg24
g25
(g29
S'\x03\x00\x00\x00\x00\x00\x00\x00'
p3000
tp3001
Rp3002
sg35
S'(test_data["Year"]>1977.5) & (test_data["Genre"].str.contains("Musical")) & (test_data["Gender"] == "F") & (test_data["Age"]<=21.5) & (test_data["Occupation"]<=2.5)'
p3003
sba(i__main__
Decision_Tree
p3004
(dp3005
g2
(lp3006
Nasg22
g23
sg24
g25
(g29
S'\x04\x00\x00\x00\x00\x00\x00\x00'
p3007
tp3008
Rp3009
sg35
S'(test_data["Year"]>1977.5) & (test_data["Genre"].str.contains("Musical")) & (test_data["Gender"] == "F") & (test_data["Age"]<=21.5) & (test_data["Occupation"]>2.5)'
p3010
sbasg22
g68
sg24
g25
(g71
S'\x00\x00\x00\x00\x00\x00\x04@'
p3011
tp3012
Rp3013
sg35
S'(test_data["Year"]>1977.5) & (test_data["Genre"].str.contains("Musical")) & (test_data["Gender"] == "F") & (test_data["Age"]<=21.5)'
p3014
sba(i__main__
Decision_Tree
p3015
(dp3016
g2
(lp3017
(i__main__
Decision_Tree
p3018
(dp3019
g2
(lp3020
Nasg22
g23
sg24
g25
(g29
S'\x04\x00\x00\x00\x00\x00\x00\x00'
p3021
tp3022
Rp3023
sg35
S'(test_data["Year"]>1977.5) & (test_data["Genre"].str.contains("Musical")) & (test_data["Gender"] == "F") & (test_data["Age"]>21.5) & (test_data["Occupation"]<=3.5)'
p3024
sba(i__main__
Decision_Tree
p3025
(dp3026
g2
(lp3027
Nasg22
g23
sg24
g25
(g29
S'\x04\x00\x00\x00\x00\x00\x00\x00'
p3028
tp3029
Rp3030
sg35
S'(test_data["Year"]>1977.5) & (test_data["Genre"].str.contains("Musical")) & (test_data["Gender"] == "F") & (test_data["Age"]>21.5) & (test_data["Occupation"]>3.5)'
p3031
sbasg22
g68
sg24
g25
(g71
S'\x00\x00\x00\x00\x00\x00\x0c@'
p3032
tp3033
Rp3034
sg35
S'(test_data["Year"]>1977.5) & (test_data["Genre"].str.contains("Musical")) & (test_data["Gender"] == "F") & (test_data["Age"]>21.5)'
p3035
sbasg22
g123
sg24
g25
(g71
S'\x00\x00\x00\x00\x00\x805@'
p3036
tp3037
Rp3038
sg35
S'(test_data["Year"]>1977.5) & (test_data["Genre"].str.contains("Musical")) & (test_data["Gender"] == "F")'
p3039
sbasg22
g44
sg24
(lp3040
g46
ag47
asg35
S'(test_data["Year"]>1977.5) & (test_data["Genre"].str.contains("Musical"))'
p3041
sba(i__main__
Decision_Tree
p3042
(dp3043
g2
(lp3044
(i__main__
Decision_Tree
p3045
(dp3046
g2
(lp3047
(i__main__
Decision_Tree
p3048
(dp3049
g2
(lp3050
(i__main__
Decision_Tree
p3051
(dp3052
g2
(lp3053
Nasg22
g23
sg24
g25
(g29
S'\x04\x00\x00\x00\x00\x00\x00\x00'
p3054
tp3055
Rp3056
sg35
S'(test_data["Year"]>1977.5) & (test_data["Genre"].str.contains("Mystery")) & (test_data["Age"]<=21.5) & (test_data["Occupation"]<=18.5) & (test_data["Gender"] == "M")'
p3057
sba(i__main__
Decision_Tree
p3058
(dp3059
g2
(lp3060
Nasg22
g23
sg24
g25
(g29
S'\x04\x00\x00\x00\x00\x00\x00\x00'
p3061
tp3062
Rp3063
sg35
S'(test_data["Year"]>1977.5) & (test_data["Genre"].str.contains("Mystery")) & (test_data["Age"]<=21.5) & (test_data["Occupation"]<=18.5) & (test_data["Gender"] == "F")'
p3064
sbasg22
g44
sg24
(lp3065
g46
ag47
asg35
S'(test_data["Year"]>1977.5) & (test_data["Genre"].str.contains("Mystery")) & (test_data["Age"]<=21.5) & (test_data["Occupation"]<=18.5)'
p3066
sba(i__main__
Decision_Tree
p3067
(dp3068
g2
(lp3069
(i__main__
Decision_Tree
p3070
(dp3071
g2
(lp3072
Nasg22
g23
sg24
g25
(g29
S'\x04\x00\x00\x00\x00\x00\x00\x00'
p3073
tp3074
Rp3075
sg35
S'(test_data["Year"]>1977.5) & (test_data["Genre"].str.contains("Mystery")) & (test_data["Age"]<=21.5) & (test_data["Occupation"]>18.5) & (test_data["Gender"] == "M")'
p3076
sba(i__main__
Decision_Tree
p3077
(dp3078
g2
(lp3079
Nasg22
g23
sg24
g25
(g29
S'\x01\x00\x00\x00\x00\x00\x00\x00'
p3080
tp3081
Rp3082
sg35
S'(test_data["Year"]>1977.5) & (test_data["Genre"].str.contains("Mystery")) & (test_data["Age"]<=21.5) & (test_data["Occupation"]>18.5) & (test_data["Gender"] == "F")'
p3083
sbasg22
g44
sg24
(lp3084
g46
ag47
asg35
S'(test_data["Year"]>1977.5) & (test_data["Genre"].str.contains("Mystery")) & (test_data["Age"]<=21.5) & (test_data["Occupation"]>18.5)'
p3085
sbasg22
g68
sg24
g25
(g71
S'\x00\x00\x00\x00\x00\x802@'
p3086
tp3087
Rp3088
sg35
S'(test_data["Year"]>1977.5) & (test_data["Genre"].str.contains("Mystery")) & (test_data["Age"]<=21.5)'
p3089
sba(i__main__
Decision_Tree
p3090
(dp3091
g2
(lp3092
(i__main__
Decision_Tree
p3093
(dp3094
g2
(lp3095
(i__main__
Decision_Tree
p3096
(dp3097
g2
(lp3098
Nasg22
g23
sg24
g25
(g29
S'\x04\x00\x00\x00\x00\x00\x00\x00'
p3099
tp3100
Rp3101
sg35
S'(test_data["Year"]>1977.5) & (test_data["Genre"].str.contains("Mystery")) & (test_data["Age"]>21.5) & (test_data["Occupation"]<=5.5) & (test_data["Gender"] == "M")'
p3102
sba(i__main__
Decision_Tree
p3103
(dp3104
g2
(lp3105
Nasg22
g23
sg24
g25
(g29
S'\x04\x00\x00\x00\x00\x00\x00\x00'
p3106
tp3107
Rp3108
sg35
S'(test_data["Year"]>1977.5) & (test_data["Genre"].str.contains("Mystery")) & (test_data["Age"]>21.5) & (test_data["Occupation"]<=5.5) & (test_data["Gender"] == "F")'
p3109
sbasg22
g44
sg24
(lp3110
g46
ag47
asg35
S'(test_data["Year"]>1977.5) & (test_data["Genre"].str.contains("Mystery")) & (test_data["Age"]>21.5) & (test_data["Occupation"]<=5.5)'
p3111
sba(i__main__
Decision_Tree
p3112
(dp3113
g2
(lp3114
(i__main__
Decision_Tree
p3115
(dp3116
g2
(lp3117
Nasg22
g23
sg24
g25
(g29
S'\x04\x00\x00\x00\x00\x00\x00\x00'
p3118
tp3119
Rp3120
sg35
S'(test_data["Year"]>1977.5) & (test_data["Genre"].str.contains("Mystery")) & (test_data["Age"]>21.5) & (test_data["Occupation"]>5.5) & (test_data["Gender"] == "M")'
p3121
sba(i__main__
Decision_Tree
p3122
(dp3123
g2
(lp3124
Nasg22
g23
sg24
g25
(g29
S'\x04\x00\x00\x00\x00\x00\x00\x00'
p3125
tp3126
Rp3127
sg35
S'(test_data["Year"]>1977.5) & (test_data["Genre"].str.contains("Mystery")) & (test_data["Age"]>21.5) & (test_data["Occupation"]>5.5) & (test_data["Gender"] == "F")'
p3128
sbasg22
g44
sg24
(lp3129
g46
ag47
asg35
S'(test_data["Year"]>1977.5) & (test_data["Genre"].str.contains("Mystery")) & (test_data["Age"]>21.5) & (test_data["Occupation"]>5.5)'
p3130
sbasg22
g68
sg24
g25
(g71
S'\x00\x00\x00\x00\x00\x00\x16@'
p3131
tp3132
Rp3133
sg35
S'(test_data["Year"]>1977.5) & (test_data["Genre"].str.contains("Mystery")) & (test_data["Age"]>21.5)'
p3134
sbasg22
g123
sg24
g25
(g71
S'\x00\x00\x00\x00\x00\x805@'
p3135
tp3136
Rp3137
sg35
S'(test_data["Year"]>1977.5) & (test_data["Genre"].str.contains("Mystery"))'
p3138
sba(i__main__
Decision_Tree
p3139
(dp3140
g2
(lp3141
(i__main__
Decision_Tree
p3142
(dp3143
g2
(lp3144
(i__main__
Decision_Tree
p3145
(dp3146
g2
(lp3147
(i__main__
Decision_Tree
p3148
(dp3149
g2
(lp3150
Nasg22
g23
sg24
g25
(g29
S'\x04\x00\x00\x00\x00\x00\x00\x00'
p3151
tp3152
Rp3153
sg35
S'(test_data["Year"]>1977.5) & (test_data["Genre"].str.contains("Romance")) & (test_data["Gender"] == "M") & (test_data["Age"]<=30.0) & (test_data["Occupation"]<=18.5)'
p3154
sba(i__main__
Decision_Tree
p3155
(dp3156
g2
(lp3157
Nasg22
g23
sg24
g25
(g29
S'\x04\x00\x00\x00\x00\x00\x00\x00'
p3158
tp3159
Rp3160
sg35
S'(test_data["Year"]>1977.5) & (test_data["Genre"].str.contains("Romance")) & (test_data["Gender"] == "M") & (test_data["Age"]<=30.0) & (test_data["Occupation"]>18.5)'
p3161
sbasg22
g68
sg24
g25
(g71
S'\x00\x00\x00\x00\x00\x802@'
p3162
tp3163
Rp3164
sg35
S'(test_data["Year"]>1977.5) & (test_data["Genre"].str.contains("Romance")) & (test_data["Gender"] == "M") & (test_data["Age"]<=30.0)'
p3165
sba(i__main__
Decision_Tree
p3166
(dp3167
g2
(lp3168
(i__main__
Decision_Tree
p3169
(dp3170
g2
(lp3171
Nasg22
g23
sg24
g25
(g29
S'\x04\x00\x00\x00\x00\x00\x00\x00'
p3172
tp3173
Rp3174
sg35
S'(test_data["Year"]>1977.5) & (test_data["Genre"].str.contains("Romance")) & (test_data["Gender"] == "M") & (test_data["Age"]>30.0) & (test_data["Occupation"]<=17.5)'
p3175
sba(i__main__
Decision_Tree
p3176
(dp3177
g2
(lp3178
Nasg22
g23
sg24
g25
(g29
S'\x04\x00\x00\x00\x00\x00\x00\x00'
p3179
tp3180
Rp3181
sg35
S'(test_data["Year"]>1977.5) & (test_data["Genre"].str.contains("Romance")) & (test_data["Gender"] == "M") & (test_data["Age"]>30.0) & (test_data["Occupation"]>17.5)'
p3182
sbasg22
g68
sg24
g25
(g71
S'\x00\x00\x00\x00\x00\x801@'
p3183
tp3184
Rp3185
sg35
S'(test_data["Year"]>1977.5) & (test_data["Genre"].str.contains("Romance")) & (test_data["Gender"] == "M") & (test_data["Age"]>30.0)'
p3186
sbasg22
g123
sg24
g25
(g71
S'\x00\x00\x00\x00\x00\x00>@'
p3187
tp3188
Rp3189
sg35
S'(test_data["Year"]>1977.5) & (test_data["Genre"].str.contains("Romance")) & (test_data["Gender"] == "M")'
p3190
sba(i__main__
Decision_Tree
p3191
(dp3192
g2
(lp3193
(i__main__
Decision_Tree
p3194
(dp3195
g2
(lp3196
(i__main__
Decision_Tree
p3197
(dp3198
g2
(lp3199
Nasg22
g23
sg24
g25
(g29
S'\x04\x00\x00\x00\x00\x00\x00\x00'
p3200
tp3201
Rp3202
sg35
S'(test_data["Year"]>1977.5) & (test_data["Genre"].str.contains("Romance")) & (test_data["Gender"] == "F") & (test_data["Age"]<=30.0) & (test_data["Occupation"]<=18.5)'
p3203
sba(i__main__
Decision_Tree
p3204
(dp3205
g2
(lp3206
Nasg22
g23
sg24
g25
(g29
S'\x03\x00\x00\x00\x00\x00\x00\x00'
p3207
tp3208
Rp3209
sg35
S'(test_data["Year"]>1977.5) & (test_data["Genre"].str.contains("Romance")) & (test_data["Gender"] == "F") & (test_data["Age"]<=30.0) & (test_data["Occupation"]>18.5)'
p3210
sbasg22
g68
sg24
g25
(g71
S'\x00\x00\x00\x00\x00\x802@'
p3211
tp3212
Rp3213
sg35
S'(test_data["Year"]>1977.5) & (test_data["Genre"].str.contains("Romance")) & (test_data["Gender"] == "F") & (test_data["Age"]<=30.0)'
p3214
sba(i__main__
Decision_Tree
p3215
(dp3216
g2
(lp3217
(i__main__
Decision_Tree
p3218
(dp3219
g2
(lp3220
Nasg22
g23
sg24
g25
(g29
S'\x04\x00\x00\x00\x00\x00\x00\x00'
p3221
tp3222
Rp3223
sg35
S'(test_data["Year"]>1977.5) & (test_data["Genre"].str.contains("Romance")) & (test_data["Gender"] == "F") & (test_data["Age"]>30.0) & (test_data["Occupation"]<=0.5)'
p3224
sba(i__main__
Decision_Tree
p3225
(dp3226
g2
(lp3227
Nasg22
g23
sg24
g25
(g29
S'\x04\x00\x00\x00\x00\x00\x00\x00'
p3228
tp3229
Rp3230
sg35
S'(test_data["Year"]>1977.5) & (test_data["Genre"].str.contains("Romance")) & (test_data["Gender"] == "F") & (test_data["Age"]>30.0) & (test_data["Occupation"]>0.5)'
p3231
sbasg22
g68
sg24
g25
(g71
S'\x00\x00\x00\x00\x00\x00\xe0?'
p3232
tp3233
Rp3234
sg35
S'(test_data["Year"]>1977.5) & (test_data["Genre"].str.contains("Romance")) & (test_data["Gender"] == "F") & (test_data["Age"]>30.0)'
p3235
sbasg22
g123
sg24
g25
(g71
S'\x00\x00\x00\x00\x00\x00>@'
p3236
tp3237
Rp3238
sg35
S'(test_data["Year"]>1977.5) & (test_data["Genre"].str.contains("Romance")) & (test_data["Gender"] == "F")'
p3239
sbasg22
g44
sg24
(lp3240
g46
ag47
asg35
S'(test_data["Year"]>1977.5) & (test_data["Genre"].str.contains("Romance"))'
p3241
sba(i__main__
Decision_Tree
p3242
(dp3243
g2
(lp3244
(i__main__
Decision_Tree
p3245
(dp3246
g2
(lp3247
(i__main__
Decision_Tree
p3248
(dp3249
g2
(lp3250
(i__main__
Decision_Tree
p3251
(dp3252
g2
(lp3253
Nasg22
g23
sg24
g25
(g29
S'\x04\x00\x00\x00\x00\x00\x00\x00'
p3254
tp3255
Rp3256
sg35
S'(test_data["Year"]>1977.5) & (test_data["Genre"].str.contains("Sci-Fi")) & (test_data["Age"]<=30.0) & (test_data["Occupation"]<=18.5) & (test_data["Gender"] == "M")'
p3257
sba(i__main__
Decision_Tree
p3258
(dp3259
g2
(lp3260
Nasg22
g23
sg24
g25
(g29
S'\x04\x00\x00\x00\x00\x00\x00\x00'
p3261
tp3262
Rp3263
sg35
S'(test_data["Year"]>1977.5) & (test_data["Genre"].str.contains("Sci-Fi")) & (test_data["Age"]<=30.0) & (test_data["Occupation"]<=18.5) & (test_data["Gender"] == "F")'
p3264
sbasg22
g44
sg24
(lp3265
g46
ag47
asg35
S'(test_data["Year"]>1977.5) & (test_data["Genre"].str.contains("Sci-Fi")) & (test_data["Age"]<=30.0) & (test_data["Occupation"]<=18.5)'
p3266
sba(i__main__
Decision_Tree
p3267
(dp3268
g2
(lp3269
(i__main__
Decision_Tree
p3270
(dp3271
g2
(lp3272
Nasg22
g23
sg24
g25
(g29
S'\x03\x00\x00\x00\x00\x00\x00\x00'
p3273
tp3274
Rp3275
sg35
S'(test_data["Year"]>1977.5) & (test_data["Genre"].str.contains("Sci-Fi")) & (test_data["Age"]<=30.0) & (test_data["Occupation"]>18.5) & (test_data["Gender"] == "M")'
p3276
sba(i__main__
Decision_Tree
p3277
(dp3278
g2
(lp3279
Nasg22
g23
sg24
g25
(g29
S'\x04\x00\x00\x00\x00\x00\x00\x00'
p3280
tp3281
Rp3282
sg35
S'(test_data["Year"]>1977.5) & (test_data["Genre"].str.contains("Sci-Fi")) & (test_data["Age"]<=30.0) & (test_data["Occupation"]>18.5) & (test_data["Gender"] == "F")'
p3283
sbasg22
g44
sg24
(lp3284
g46
ag47
asg35
S'(test_data["Year"]>1977.5) & (test_data["Genre"].str.contains("Sci-Fi")) & (test_data["Age"]<=30.0) & (test_data["Occupation"]>18.5)'
p3285
sbasg22
g68
sg24
g25
(g71
S'\x00\x00\x00\x00\x00\x802@'
p3286
tp3287
Rp3288
sg35
S'(test_data["Year"]>1977.5) & (test_data["Genre"].str.contains("Sci-Fi")) & (test_data["Age"]<=30.0)'
p3289
sba(i__main__
Decision_Tree
p3290
(dp3291
g2
(lp3292
(i__main__
Decision_Tree
p3293
(dp3294
g2
(lp3295
(i__main__
Decision_Tree
p3296
(dp3297
g2
(lp3298
Nasg22
g23
sg24
g25
(g29
S'\x04\x00\x00\x00\x00\x00\x00\x00'
p3299
tp3300
Rp3301
sg35
S'(test_data["Year"]>1977.5) & (test_data["Genre"].str.contains("Sci-Fi")) & (test_data["Age"]>30.0) & (test_data["Occupation"]<=1.5) & (test_data["Gender"] == "M")'
p3302
sba(i__main__
Decision_Tree
p3303
(dp3304
g2
(lp3305
Nasg22
g23
sg24
g25
(g29
S'\x04\x00\x00\x00\x00\x00\x00\x00'
p3306
tp3307
Rp3308
sg35
S'(test_data["Year"]>1977.5) & (test_data["Genre"].str.contains("Sci-Fi")) & (test_data["Age"]>30.0) & (test_data["Occupation"]<=1.5) & (test_data["Gender"] == "F")'
p3309
sbasg22
g44
sg24
(lp3310
g46
ag47
asg35
S'(test_data["Year"]>1977.5) & (test_data["Genre"].str.contains("Sci-Fi")) & (test_data["Age"]>30.0) & (test_data["Occupation"]<=1.5)'
p3311
sba(i__main__
Decision_Tree
p3312
(dp3313
g2
(lp3314
(i__main__
Decision_Tree
p3315
(dp3316
g2
(lp3317
Nasg22
g23
sg24
g25
(g29
S'\x04\x00\x00\x00\x00\x00\x00\x00'
p3318
tp3319
Rp3320
sg35
S'(test_data["Year"]>1977.5) & (test_data["Genre"].str.contains("Sci-Fi")) & (test_data["Age"]>30.0) & (test_data["Occupation"]>1.5) & (test_data["Gender"] == "M")'
p3321
sba(i__main__
Decision_Tree
p3322
(dp3323
g2
(lp3324
Nasg22
g23
sg24
g25
(g29
S'\x04\x00\x00\x00\x00\x00\x00\x00'
p3325
tp3326
Rp3327
sg35
S'(test_data["Year"]>1977.5) & (test_data["Genre"].str.contains("Sci-Fi")) & (test_data["Age"]>30.0) & (test_data["Occupation"]>1.5) & (test_data["Gender"] == "F")'
p3328
sbasg22
g44
sg24
(lp3329
g46
ag47
asg35
S'(test_data["Year"]>1977.5) & (test_data["Genre"].str.contains("Sci-Fi")) & (test_data["Age"]>30.0) & (test_data["Occupation"]>1.5)'
p3330
sbasg22
g68
sg24
g25
(g71
S'\x00\x00\x00\x00\x00\x00\xf8?'
p3331
tp3332
Rp3333
sg35
S'(test_data["Year"]>1977.5) & (test_data["Genre"].str.contains("Sci-Fi")) & (test_data["Age"]>30.0)'
p3334
sbasg22
g123
sg24
g25
(g71
S'\x00\x00\x00\x00\x00\x00>@'
p3335
tp3336
Rp3337
sg35
S'(test_data["Year"]>1977.5) & (test_data["Genre"].str.contains("Sci-Fi"))'
p3338
sba(i__main__
Decision_Tree
p3339
(dp3340
g2
(lp3341
(i__main__
Decision_Tree
p3342
(dp3343
g2
(lp3344
(i__main__
Decision_Tree
p3345
(dp3346
g2
(lp3347
(i__main__
Decision_Tree
p3348
(dp3349
g2
(lp3350
Nasg22
g23
sg24
g25
(g29
S'\x04\x00\x00\x00\x00\x00\x00\x00'
p3351
tp3352
Rp3353
sg35
S'(test_data["Year"]>1977.5) & (test_data["Genre"].str.contains("Thriller")) & (test_data["Occupation"]<=18.5) & (test_data["Age"]<=21.5) & (test_data["Gender"] == "M")'
p3354
sba(i__main__
Decision_Tree
p3355
(dp3356
g2
(lp3357
Nasg22
g23
sg24
g25
(g29
S'\x04\x00\x00\x00\x00\x00\x00\x00'
p3358
tp3359
Rp3360
sg35
S'(test_data["Year"]>1977.5) & (test_data["Genre"].str.contains("Thriller")) & (test_data["Occupation"]<=18.5) & (test_data["Age"]<=21.5) & (test_data["Gender"] == "F")'
p3361
sbasg22
g44
sg24
(lp3362
g46
ag47
asg35
S'(test_data["Year"]>1977.5) & (test_data["Genre"].str.contains("Thriller")) & (test_data["Occupation"]<=18.5) & (test_data["Age"]<=21.5)'
p3363
sba(i__main__
Decision_Tree
p3364
(dp3365
g2
(lp3366
(i__main__
Decision_Tree
p3367
(dp3368
g2
(lp3369
Nasg22
g23
sg24
g25
(g29
S'\x04\x00\x00\x00\x00\x00\x00\x00'
p3370
tp3371
Rp3372
sg35
S'(test_data["Year"]>1977.5) & (test_data["Genre"].str.contains("Thriller")) & (test_data["Occupation"]<=18.5) & (test_data["Age"]>21.5) & (test_data["Gender"] == "M")'
p3373
sba(i__main__
Decision_Tree
p3374
(dp3375
g2
(lp3376
Nasg22
g23
sg24
g25
(g29
S'\x04\x00\x00\x00\x00\x00\x00\x00'
p3377
tp3378
Rp3379
sg35
S'(test_data["Year"]>1977.5) & (test_data["Genre"].str.contains("Thriller")) & (test_data["Occupation"]<=18.5) & (test_data["Age"]>21.5) & (test_data["Gender"] == "F")'
p3380
sbasg22
g44
sg24
(lp3381
g46
ag47
asg35
S'(test_data["Year"]>1977.5) & (test_data["Genre"].str.contains("Thriller")) & (test_data["Occupation"]<=18.5) & (test_data["Age"]>21.5)'
p3382
sbasg22
g123
sg24
g25
(g71
S'\x00\x00\x00\x00\x00\x805@'
p3383
tp3384
Rp3385
sg35
S'(test_data["Year"]>1977.5) & (test_data["Genre"].str.contains("Thriller")) & (test_data["Occupation"]<=18.5)'
p3386
sba(i__main__
Decision_Tree
p3387
(dp3388
g2
(lp3389
(i__main__
Decision_Tree
p3390
(dp3391
g2
(lp3392
(i__main__
Decision_Tree
p3393
(dp3394
g2
(lp3395
Nasg22
g23
sg24
g25
(g29
S'\x04\x00\x00\x00\x00\x00\x00\x00'
p3396
tp3397
Rp3398
sg35
S'(test_data["Year"]>1977.5) & (test_data["Genre"].str.contains("Thriller")) & (test_data["Occupation"]>18.5) & (test_data["Age"]<=30.0) & (test_data["Gender"] == "M")'
p3399
sba(i__main__
Decision_Tree
p3400
(dp3401
g2
(lp3402
Nasg22
g23
sg24
g25
(g29
S'\x03\x00\x00\x00\x00\x00\x00\x00'
p3403
tp3404
Rp3405
sg35
S'(test_data["Year"]>1977.5) & (test_data["Genre"].str.contains("Thriller")) & (test_data["Occupation"]>18.5) & (test_data["Age"]<=30.0) & (test_data["Gender"] == "F")'
p3406
sbasg22
g44
sg24
(lp3407
g46
ag47
asg35
S'(test_data["Year"]>1977.5) & (test_data["Genre"].str.contains("Thriller")) & (test_data["Occupation"]>18.5) & (test_data["Age"]<=30.0)'
p3408
sba(i__main__
Decision_Tree
p3409
(dp3410
g2
(lp3411
(i__main__
Decision_Tree
p3412
(dp3413
g2
(lp3414
Nasg22
g23
sg24
g25
(g29
S'\x04\x00\x00\x00\x00\x00\x00\x00'
p3415
tp3416
Rp3417
sg35
S'(test_data["Year"]>1977.5) & (test_data["Genre"].str.contains("Thriller")) & (test_data["Occupation"]>18.5) & (test_data["Age"]>30.0) & (test_data["Gender"] == "M")'
p3418
sba(i__main__
Decision_Tree
p3419
(dp3420
g2
(lp3421
Nasg22
g23
sg24
g25
(g29
S'\x04\x00\x00\x00\x00\x00\x00\x00'
p3422
tp3423
Rp3424
sg35
S'(test_data["Year"]>1977.5) & (test_data["Genre"].str.contains("Thriller")) & (test_data["Occupation"]>18.5) & (test_data["Age"]>30.0) & (test_data["Gender"] == "F")'
p3425
sbasg22
g44
sg24
(lp3426
g46
ag47
asg35
S'(test_data["Year"]>1977.5) & (test_data["Genre"].str.contains("Thriller")) & (test_data["Occupation"]>18.5) & (test_data["Age"]>30.0)'
p3427
sbasg22
g123
sg24
g25
(g71
S'\x00\x00\x00\x00\x00\x00>@'
p3428
tp3429
Rp3430
sg35
S'(test_data["Year"]>1977.5) & (test_data["Genre"].str.contains("Thriller")) & (test_data["Occupation"]>18.5)'
p3431
sbasg22
g68
sg24
g25
(g71
S'\x00\x00\x00\x00\x00\x802@'
p3432
tp3433
Rp3434
sg35
S'(test_data["Year"]>1977.5) & (test_data["Genre"].str.contains("Thriller"))'
p3435
sba(i__main__
Decision_Tree
p3436
(dp3437
g2
(lp3438
(i__main__
Decision_Tree
p3439
(dp3440
g2
(lp3441
(i__main__
Decision_Tree
p3442
(dp3443
g2
(lp3444
(i__main__
Decision_Tree
p3445
(dp3446
g2
(lp3447
Nasg22
g23
sg24
g25
(g29
S'\x05\x00\x00\x00\x00\x00\x00\x00'
p3448
tp3449
Rp3450
sg35
S'(test_data["Year"]>1977.5) & (test_data["Genre"].str.contains("War")) & (test_data["Occupation"]<=18.5) & (test_data["Age"]<=21.5) & (test_data["Gender"] == "M")'
p3451
sba(i__main__
Decision_Tree
p3452
(dp3453
g2
(lp3454
Nasg22
g23
sg24
g25
(g29
S'\x04\x00\x00\x00\x00\x00\x00\x00'
p3455
tp3456
Rp3457
sg35
S'(test_data["Year"]>1977.5) & (test_data["Genre"].str.contains("War")) & (test_data["Occupation"]<=18.5) & (test_data["Age"]<=21.5) & (test_data["Gender"] == "F")'
p3458
sbasg22
g44
sg24
(lp3459
g46
ag47
asg35
S'(test_data["Year"]>1977.5) & (test_data["Genre"].str.contains("War")) & (test_data["Occupation"]<=18.5) & (test_data["Age"]<=21.5)'
p3460
sba(i__main__
Decision_Tree
p3461
(dp3462
g2
(lp3463
(i__main__
Decision_Tree
p3464
(dp3465
g2
(lp3466
Nasg22
g23
sg24
g25
(g29
S'\x04\x00\x00\x00\x00\x00\x00\x00'
p3467
tp3468
Rp3469
sg35
S'(test_data["Year"]>1977.5) & (test_data["Genre"].str.contains("War")) & (test_data["Occupation"]<=18.5) & (test_data["Age"]>21.5) & (test_data["Gender"] == "M")'
p3470
sba(i__main__
Decision_Tree
p3471
(dp3472
g2
(lp3473
Nasg22
g23
sg24
g25
(g29
S'\x04\x00\x00\x00\x00\x00\x00\x00'
p3474
tp3475
Rp3476
sg35
S'(test_data["Year"]>1977.5) & (test_data["Genre"].str.contains("War")) & (test_data["Occupation"]<=18.5) & (test_data["Age"]>21.5) & (test_data["Gender"] == "F")'
p3477
sbasg22
g44
sg24
(lp3478
g46
ag47
asg35
S'(test_data["Year"]>1977.5) & (test_data["Genre"].str.contains("War")) & (test_data["Occupation"]<=18.5) & (test_data["Age"]>21.5)'
p3479
sbasg22
g123
sg24
g25
(g71
S'\x00\x00\x00\x00\x00\x805@'
p3480
tp3481
Rp3482
sg35
S'(test_data["Year"]>1977.5) & (test_data["Genre"].str.contains("War")) & (test_data["Occupation"]<=18.5)'
p3483
sba(i__main__
Decision_Tree
p3484
(dp3485
g2
(lp3486
(i__main__
Decision_Tree
p3487
(dp3488
g2
(lp3489
(i__main__
Decision_Tree
p3490
(dp3491
g2
(lp3492
Nasg22
g23
sg24
g25
(g29
S'\x04\x00\x00\x00\x00\x00\x00\x00'
p3493
tp3494
Rp3495
sg35
S'(test_data["Year"]>1977.5) & (test_data["Genre"].str.contains("War")) & (test_data["Occupation"]>18.5) & (test_data["Gender"] == "M") & (test_data["Age"]<=47.5)'
p3496
sba(i__main__
Decision_Tree
p3497
(dp3498
g2
(lp3499
Nasg22
g23
sg24
g25
(g29
S'\x04\x00\x00\x00\x00\x00\x00\x00'
p3500
tp3501
Rp3502
sg35
S'(test_data["Year"]>1977.5) & (test_data["Genre"].str.contains("War")) & (test_data["Occupation"]>18.5) & (test_data["Gender"] == "M") & (test_data["Age"]>47.5)'
p3503
sbasg22
g123
sg24
g25
(g71
S'\x00\x00\x00\x00\x00\xc0G@'
p3504
tp3505
Rp3506
sg35
S'(test_data["Year"]>1977.5) & (test_data["Genre"].str.contains("War")) & (test_data["Occupation"]>18.5) & (test_data["Gender"] == "M")'
p3507
sba(i__main__
Decision_Tree
p3508
(dp3509
g2
(lp3510
(i__main__
Decision_Tree
p3511
(dp3512
g2
(lp3513
Nasg22
g23
sg24
g25
(g29
S'\x04\x00\x00\x00\x00\x00\x00\x00'
p3514
tp3515
Rp3516
sg35
S'(test_data["Year"]>1977.5) & (test_data["Genre"].str.contains("War")) & (test_data["Occupation"]>18.5) & (test_data["Gender"] == "F") & (test_data["Age"]<=21.5)'
p3517
sba(i__main__
Decision_Tree
p3518
(dp3519
g2
(lp3520
Nasg22
g23
sg24
g25
(g29
S'\x04\x00\x00\x00\x00\x00\x00\x00'
p3521
tp3522
Rp3523
sg35
S'(test_data["Year"]>1977.5) & (test_data["Genre"].str.contains("War")) & (test_data["Occupation"]>18.5) & (test_data["Gender"] == "F") & (test_data["Age"]>21.5)'
p3524
sbasg22
g123
sg24
g25
(g71
S'\x00\x00\x00\x00\x00\x805@'
p3525
tp3526
Rp3527
sg35
S'(test_data["Year"]>1977.5) & (test_data["Genre"].str.contains("War")) & (test_data["Occupation"]>18.5) & (test_data["Gender"] == "F")'
p3528
sbasg22
g44
sg24
(lp3529
g46
ag47
asg35
S'(test_data["Year"]>1977.5) & (test_data["Genre"].str.contains("War")) & (test_data["Occupation"]>18.5)'
p3530
sbasg22
g68
sg24
g25
(g71
S'\x00\x00\x00\x00\x00\x802@'
p3531
tp3532
Rp3533
sg35
S'(test_data["Year"]>1977.5) & (test_data["Genre"].str.contains("War"))'
p3534
sba(i__main__
Decision_Tree
p3535
(dp3536
g2
(lp3537
(i__main__
Decision_Tree
p3538
(dp3539
g2
(lp3540
(i__main__
Decision_Tree
p3541
(dp3542
g2
(lp3543
(i__main__
Decision_Tree
p3544
(dp3545
g2
(lp3546
Nasg22
g23
sg24
g25
(g29
S'\x04\x00\x00\x00\x00\x00\x00\x00'
p3547
tp3548
Rp3549
sg35
S'(test_data["Year"]>1977.5) & (test_data["Genre"].str.contains("Western")) & (test_data["Age"]<=47.5) & (test_data["Occupation"]<=18.5) & (test_data["Gender"] == "M")'
p3550
sba(i__main__
Decision_Tree
p3551
(dp3552
g2
(lp3553
Nasg22
g23
sg24
g25
(g29
S'\x03\x00\x00\x00\x00\x00\x00\x00'
p3554
tp3555
Rp3556
sg35
S'(test_data["Year"]>1977.5) & (test_data["Genre"].str.contains("Western")) & (test_data["Age"]<=47.5) & (test_data["Occupation"]<=18.5) & (test_data["Gender"] == "F")'
p3557
sbasg22
g44
sg24
(lp3558
g46
ag47
asg35
S'(test_data["Year"]>1977.5) & (test_data["Genre"].str.contains("Western")) & (test_data["Age"]<=47.5) & (test_data["Occupation"]<=18.5)'
p3559
sba(i__main__
Decision_Tree
p3560
(dp3561
g2
(lp3562
(i__main__
Decision_Tree
p3563
(dp3564
g2
(lp3565
Nasg22
g23
sg24
g25
(g29
S'\x04\x00\x00\x00\x00\x00\x00\x00'
p3566
tp3567
Rp3568
sg35
S'(test_data["Year"]>1977.5) & (test_data["Genre"].str.contains("Western")) & (test_data["Age"]<=47.5) & (test_data["Occupation"]>18.5) & (test_data["Gender"] == "M")'
p3569
sba(i__main__
Decision_Tree
p3570
(dp3571
g2
(lp3572
Nasg22
g23
sg24
g25
(g29
S'\x03\x00\x00\x00\x00\x00\x00\x00'
p3573
tp3574
Rp3575
sg35
S'(test_data["Year"]>1977.5) & (test_data["Genre"].str.contains("Western")) & (test_data["Age"]<=47.5) & (test_data["Occupation"]>18.5) & (test_data["Gender"] == "F")'
p3576
sbasg22
g44
sg24
(lp3577
g46
ag47
asg35
S'(test_data["Year"]>1977.5) & (test_data["Genre"].str.contains("Western")) & (test_data["Age"]<=47.5) & (test_data["Occupation"]>18.5)'
p3578
sbasg22
g68
sg24
g25
(g71
S'\x00\x00\x00\x00\x00\x802@'
p3579
tp3580
Rp3581
sg35
S'(test_data["Year"]>1977.5) & (test_data["Genre"].str.contains("Western")) & (test_data["Age"]<=47.5)'
p3582
sba(i__main__
Decision_Tree
p3583
(dp3584
g2
(lp3585
(i__main__
Decision_Tree
p3586
(dp3587
g2
(lp3588
(i__main__
Decision_Tree
p3589
(dp3590
g2
(lp3591
Nasg22
g23
sg24
g25
(g29
S'\x03\x00\x00\x00\x00\x00\x00\x00'
p3592
tp3593
Rp3594
sg35
S'(test_data["Year"]>1977.5) & (test_data["Genre"].str.contains("Western")) & (test_data["Age"]>47.5) & (test_data["Gender"] == "M") & (test_data["Occupation"]<=17.5)'
p3595
sba(i__main__
Decision_Tree
p3596
(dp3597
g2
(lp3598
Nasg22
g23
sg24
g25
(g29
S'\x04\x00\x00\x00\x00\x00\x00\x00'
p3599
tp3600
Rp3601
sg35
S'(test_data["Year"]>1977.5) & (test_data["Genre"].str.contains("Western")) & (test_data["Age"]>47.5) & (test_data["Gender"] == "M") & (test_data["Occupation"]>17.5)'
p3602
sbasg22
g68
sg24
g25
(g71
S'\x00\x00\x00\x00\x00\x801@'
p3603
tp3604
Rp3605
sg35
S'(test_data["Year"]>1977.5) & (test_data["Genre"].str.contains("Western")) & (test_data["Age"]>47.5) & (test_data["Gender"] == "M")'
p3606
sba(i__main__
Decision_Tree
p3607
(dp3608
g2
(lp3609
(i__main__
Decision_Tree
p3610
(dp3611
g2
(lp3612
Nasg22
g23
sg24
g25
(g29
S'\x03\x00\x00\x00\x00\x00\x00\x00'
p3613
tp3614
Rp3615
sg35
S'(test_data["Year"]>1977.5) & (test_data["Genre"].str.contains("Western")) & (test_data["Age"]>47.5) & (test_data["Gender"] == "F") & (test_data["Occupation"]<=8.5)'
p3616
sba(i__main__
Decision_Tree
p3617
(dp3618
g2
(lp3619
Nasg22
g23
sg24
g25
(g29
S'\x04\x00\x00\x00\x00\x00\x00\x00'
p3620
tp3621
Rp3622
sg35
S'(test_data["Year"]>1977.5) & (test_data["Genre"].str.contains("Western")) & (test_data["Age"]>47.5) & (test_data["Gender"] == "F") & (test_data["Occupation"]>8.5)'
p3623
sbasg22
g68
sg24
g25
(g71
S'\x00\x00\x00\x00\x00\x00!@'
p3624
tp3625
Rp3626
sg35
S'(test_data["Year"]>1977.5) & (test_data["Genre"].str.contains("Western")) & (test_data["Age"]>47.5) & (test_data["Gender"] == "F")'
p3627
sbasg22
g44
sg24
(lp3628
g46
ag47
asg35
S'(test_data["Year"]>1977.5) & (test_data["Genre"].str.contains("Western")) & (test_data["Age"]>47.5)'
p3629
sbasg22
g123
sg24
g25
(g71
S'\x00\x00\x00\x00\x00\xc0G@'
p3630
tp3631
Rp3632
sg35
S'(test_data["Year"]>1977.5) & (test_data["Genre"].str.contains("Western"))'
p3633
sbasg22
g1821
sg24
g1822
(g1823
(I0
tp3634
g1825
tp3635
Rp3636
(I1
(I18
tp3637
g26
(S'S11'
p3638
I0
I1
tp3639
Rp3640
(I3
S'|'
p3641
NNNI11
I1
I0
tp3642
bI00
S"Action\x00\x00\x00\x00\x00Adventure\x00\x00Animation\x00\x00Children's\x00Comedy\x00\x00\x00\x00\x00Crime\x00\x00\x00\x00\x00\x00DocumentaryDrama\x00\x00\x00\x00\x00\x00Fantasy\x00\x00\x00\x00Film-Noir\x00\x00Horror\x00\x00\x00\x00\x00Musical\x00\x00\x00\x00Mystery\x00\x00\x00\x00Romance\x00\x00\x00\x00Sci-Fi\x00\x00\x00\x00\x00Thriller\x00\x00\x00War\x00\x00\x00\x00\x00\x00\x00\x00Western\x00\x00\x00\x00"
p3643
tp3644
bsg35
S'(test_data["Year"]>1977.5)'
p3645
sbasg22
S'Year'
p3646
sg24
g25
(g71
S'\x00\x00\x00\x00\x00\xe6\x9e@'
p3647
tp3648
Rp3649
sg35
Nsbasg22
S'root'
p3650
sg24
Nsg35
Nsb.