(i__main__
Decision_Tree
p0
(dp1
S'name'
p2
S'root'
p3
sS'condition'
p4
NsS'children'
p5
(lp6
(i__main__
Decision_Tree
p7
(dp8
g2
S'Year'
p9
sg4
cnumpy.core.multiarray
scalar
p10
(cnumpy
dtype
p11
(S'f8'
p12
I0
I1
tp13
Rp14
(I3
S'<'
p15
NNNI-1
I-1
I0
tp16
bS'\x00\x00\x00\x00\x00\xe6\x9e@'
p17
tp18
Rp19
sg5
(lp20
(i__main__
Decision_Tree
p21
(dp22
g2
S'Genre'
p23
sg4
cnumpy.core.multiarray
_reconstruct
p24
(cnumpy
ndarray
p25
(I0
tp26
S'b'
p27
tp28
Rp29
(I1
(I18
tp30
g11
(S'S11'
p31
I0
I1
tp32
Rp33
(I3
S'|'
p34
NNNI11
I1
I0
tp35
bI00
S"Action\x00\x00\x00\x00\x00Adventure\x00\x00Animation\x00\x00Children's\x00Comedy\x00\x00\x00\x00\x00Crime\x00\x00\x00\x00\x00\x00DocumentaryDrama\x00\x00\x00\x00\x00\x00Fantasy\x00\x00\x00\x00Film-Noir\x00\x00Horror\x00\x00\x00\x00\x00Musical\x00\x00\x00\x00Mystery\x00\x00\x00\x00Romance\x00\x00\x00\x00Sci-Fi\x00\x00\x00\x00\x00Thriller\x00\x00\x00War\x00\x00\x00\x00\x00\x00\x00\x00Western\x00\x00\x00\x00"
p36
tp37
bsg5
(lp38
(i__main__
Decision_Tree
p39
(dp40
g2
S'Age'
p41
sg4
g10
(g14
S'\x00\x00\x00\x00\x00\x00>@'
p42
tp43
Rp44
sg5
(lp45
(i__main__
Decision_Tree
p46
(dp47
g2
S'Occupation'
p48
sg4
g10
(g14
S'\x00\x00\x00\x00\x00\x00\xf8?'
p49
tp50
Rp51
sg5
(lp52
(i__main__
Decision_Tree
p53
(dp54
g2
S'Gender'
p55
sg4
(lp56
S'M'
p57
aS'F'
p58
asg5
(lp59
(i__main__
Decision_Tree
p60
(dp61
g2
S'label'
p62
sg4
g10
(g11
(S'i8'
p63
I0
I1
tp64
Rp65
(I3
S'<'
p66
NNNI-1
I-1
I0
tp67
bS'\x04\x00\x00\x00\x00\x00\x00\x00'
p68
tp69
Rp70
sba(i__main__
Decision_Tree
p71
(dp72
g2
g62
sg4
g10
(g65
S'\x04\x00\x00\x00\x00\x00\x00\x00'
p73
tp74
Rp75
sbasba(i__main__
Decision_Tree
p76
(dp77
g2
g55
sg4
(lp78
g57
ag58
asg5
(lp79
(i__main__
Decision_Tree
p80
(dp81
g2
g62
sg4
g10
(g65
S'\x05\x00\x00\x00\x00\x00\x00\x00'
p82
tp83
Rp84
sba(i__main__
Decision_Tree
p85
(dp86
g2
g62
sg4
g10
(g65
S'\x04\x00\x00\x00\x00\x00\x00\x00'
p87
tp88
Rp89
sbasbasba(i__main__
Decision_Tree
p90
(dp91
g2
g48
sg4
g10
(g14
S'\x00\x00\x00\x00\x00\x00\xf8?'
p92
tp93
Rp94
sg5
(lp95
(i__main__
Decision_Tree
p96
(dp97
g2
g55
sg4
(lp98
g57
ag58
asg5
(lp99
(i__main__
Decision_Tree
p100
(dp101
g2
g62
sg4
g10
(g65
S'\x04\x00\x00\x00\x00\x00\x00\x00'
p102
tp103
Rp104
sba(i__main__
Decision_Tree
p105
(dp106
g2
g62
sg4
g10
(g65
S'\x04\x00\x00\x00\x00\x00\x00\x00'
p107
tp108
Rp109
sbasba(i__main__
Decision_Tree
p110
(dp111
g2
g55
sg4
(lp112
g57
ag58
asg5
(lp113
(i__main__
Decision_Tree
p114
(dp115
g2
g62
sg4
g10
(g65
S'\x04\x00\x00\x00\x00\x00\x00\x00'
p116
tp117
Rp118
sba(i__main__
Decision_Tree
p119
(dp120
g2
g62
sg4
g10
(g65
S'\x04\x00\x00\x00\x00\x00\x00\x00'
p121
tp122
Rp123
sbasbasbasba(i__main__
Decision_Tree
p124
(dp125
g2
g41
sg4
g10
(g14
S'\x00\x00\x00\x00\x00\x805@'
p126
tp127
Rp128
sg5
(lp129
(i__main__
Decision_Tree
p130
(dp131
g2
g48
sg4
g10
(g14
S'\x00\x00\x00\x00\x00\x00\x04@'
p132
tp133
Rp134
sg5
(lp135
(i__main__
Decision_Tree
p136
(dp137
g2
g55
sg4
(lp138
g57
ag58
asg5
(lp139
(i__main__
Decision_Tree
p140
(dp141
g2
g62
sg4
g10
(g65
S'\x05\x00\x00\x00\x00\x00\x00\x00'
p142
tp143
Rp144
sba(i__main__
Decision_Tree
p145
(dp146
g2
g62
sg4
g10
(g65
S'\x05\x00\x00\x00\x00\x00\x00\x00'
p147
tp148
Rp149
sbasba(i__main__
Decision_Tree
p150
(dp151
g2
g55
sg4
(lp152
g57
ag58
asg5
(lp153
(i__main__
Decision_Tree
p154
(dp155
g2
g62
sg4
g10
(g65
S'\x05\x00\x00\x00\x00\x00\x00\x00'
p156
tp157
Rp158
sba(i__main__
Decision_Tree
p159
(dp160
g2
g62
sg4
g10
(g65
S'\x05\x00\x00\x00\x00\x00\x00\x00'
p161
tp162
Rp163
sbasbasba(i__main__
Decision_Tree
p164
(dp165
g2
g48
sg4
g10
(g14
S"\x00\x00\x00\x00\x00\x00'@"
p166
tp167
Rp168
sg5
(lp169
(i__main__
Decision_Tree
p170
(dp171
g2
g55
sg4
(lp172
g57
ag58
asg5
(lp173
(i__main__
Decision_Tree
p174
(dp175
g2
g62
sg4
g10
(g65
S'\x04\x00\x00\x00\x00\x00\x00\x00'
p176
tp177
Rp178
sba(i__main__
Decision_Tree
p179
(dp180
g2
g62
sg4
g10
(g65
S'\x04\x00\x00\x00\x00\x00\x00\x00'
p181
tp182
Rp183
sbasba(i__main__
Decision_Tree
p184
(dp185
g2
g55
sg4
(lp186
g57
ag58
asg5
(lp187
(i__main__
Decision_Tree
p188
(dp189
g2
g62
sg4
g10
(g65
S'\x04\x00\x00\x00\x00\x00\x00\x00'
p190
tp191
Rp192
sba(i__main__
Decision_Tree
p193
(dp194
g2
g62
sg4
g10
(g65
S'\x04\x00\x00\x00\x00\x00\x00\x00'
p195
tp196
Rp197
sbasbasbasba(i__main__
Decision_Tree
p198
(dp199
g2
g55
sg4
(lp200
g57
ag58
asg5
(lp201
(i__main__
Decision_Tree
p202
(dp203
g2
g41
sg4
g10
(g14
S'\x00\x00\x00\x00\x00\x805@'
p204
tp205
Rp206
sg5
(lp207
(i__main__
Decision_Tree
p208
(dp209
g2
g48
sg4
g10
(g14
S'\x00\x00\x00\x00\x00\x803@'
p210
tp211
Rp212
sg5
(lp213
(i__main__
Decision_Tree
p214
(dp215
g2
g62
sg4
g10
(g65
S'\x04\x00\x00\x00\x00\x00\x00\x00'
p216
tp217
Rp218
sba(i__main__
Decision_Tree
p219
(dp220
g2
g62
sg4
g10
(g65
S'\x05\x00\x00\x00\x00\x00\x00\x00'
p221
tp222
Rp223
sbasba(i__main__
Decision_Tree
p224
(dp225
g2
g48
sg4
g10
(g14
S'\x00\x00\x00\x00\x00\x800@'
p226
tp227
Rp228
sg5
(lp229
(i__main__
Decision_Tree
p230
(dp231
g2
g62
sg4
g10
(g65
S'\x04\x00\x00\x00\x00\x00\x00\x00'
p232
tp233
Rp234
sba(i__main__
Decision_Tree
p235
(dp236
g2
g62
sg4
g10
(g65
S'\x04\x00\x00\x00\x00\x00\x00\x00'
p237
tp238
Rp239
sbasbasba(i__main__
Decision_Tree
p240
(dp241
g2
g41
sg4
g10
(g14
S'\x00\x00\x00\x00\x00\x805@'
p242
tp243
Rp244
sg5
(lp245
(i__main__
Decision_Tree
p246
(dp247
g2
g48
sg4
g10
(g14
S'\x00\x00\x00\x00\x00\x00-@'
p248
tp249
Rp250
sg5
(lp251
(i__main__
Decision_Tree
p252
(dp253
g2
g62
sg4
g10
(g65
S'\x04\x00\x00\x00\x00\x00\x00\x00'
p254
tp255
Rp256
sba(i__main__
Decision_Tree
p257
(dp258
g2
g62
sg4
g10
(g65
S'\x05\x00\x00\x00\x00\x00\x00\x00'
p259
tp260
Rp261
sbasba(i__main__
Decision_Tree
p262
(dp263
g2
g48
sg4
g10
(g14
S"\x00\x00\x00\x00\x00\x00'@"
p264
tp265
Rp266
sg5
(lp267
(i__main__
Decision_Tree
p268
(dp269
g2
g62
sg4
g10
(g65
S'\x04\x00\x00\x00\x00\x00\x00\x00'
p270
tp271
Rp272
sba(i__main__
Decision_Tree
p273
(dp274
g2
g62
sg4
g10
(g65
S'\x04\x00\x00\x00\x00\x00\x00\x00'
p275
tp276
Rp277
sbasbasbasba(i__main__
Decision_Tree
p278
(dp279
g2
g55
sg4
(lp280
g57
ag58
asg5
(lp281
(i__main__
Decision_Tree
p282
(dp283
g2
g41
sg4
g10
(g14
S'\x00\x00\x00\x00\x00\x805@'
p284
tp285
Rp286
sg5
(lp287
(i__main__
Decision_Tree
p288
(dp289
g2
g48
sg4
g10
(g14
S'\x00\x00\x00\x00\x00\x803@'
p290
tp291
Rp292
sg5
(lp293
(i__main__
Decision_Tree
p294
(dp295
g2
g62
sg4
g10
(g65
S'\x04\x00\x00\x00\x00\x00\x00\x00'
p296
tp297
Rp298
sba(i__main__
Decision_Tree
p299
(dp300
g2
g62
sg4
g10
(g65
S'\x05\x00\x00\x00\x00\x00\x00\x00'
p301
tp302
Rp303
sbasba(i__main__
Decision_Tree
p304
(dp305
g2
g48
sg4
g10
(g14
S'\x00\x00\x00\x00\x00\x00/@'
p306
tp307
Rp308
sg5
(lp309
(i__main__
Decision_Tree
p310
(dp311
g2
g62
sg4
g10
(g65
S'\x04\x00\x00\x00\x00\x00\x00\x00'
p312
tp313
Rp314
sba(i__main__
Decision_Tree
p315
(dp316
g2
g62
sg4
g10
(g65
S'\x04\x00\x00\x00\x00\x00\x00\x00'
p317
tp318
Rp319
sbasbasba(i__main__
Decision_Tree
p320
(dp321
g2
g41
sg4
g10
(g14
S'\x00\x00\x00\x00\x00\x805@'
p322
tp323
Rp324
sg5
(lp325
(i__main__
Decision_Tree
p326
(dp327
g2
g48
sg4
g10
(g14
S'\x00\x00\x00\x00\x00\x803@'
p328
tp329
Rp330
sg5
(lp331
(i__main__
Decision_Tree
p332
(dp333
g2
g62
sg4
g10
(g65
S'\x04\x00\x00\x00\x00\x00\x00\x00'
p334
tp335
Rp336
sba(i__main__
Decision_Tree
p337
(dp338
g2
g62
sg4
g10
(g65
S'\x01\x00\x00\x00\x00\x00\x00\x00'
p339
tp340
Rp341
sbasba(i__main__
Decision_Tree
p342
(dp343
g2
g48
sg4
g10
(g14
S'\x00\x00\x00\x00\x00\x00\x0c@'
p344
tp345
Rp346
sg5
(lp347
(i__main__
Decision_Tree
p348
(dp349
g2
g62
sg4
g10
(g65
S'\x04\x00\x00\x00\x00\x00\x00\x00'
p350
tp351
Rp352
sba(i__main__
Decision_Tree
p353
(dp354
g2
g62
sg4
g10
(g65
S'\x04\x00\x00\x00\x00\x00\x00\x00'
p355
tp356
Rp357
sbasbasbasba(i__main__
Decision_Tree
p358
(dp359
g2
g55
sg4
(lp360
g57
ag58
asg5
(lp361
(i__main__
Decision_Tree
p362
(dp363
g2
g41
sg4
g10
(g14
S'\x00\x00\x00\x00\x00\x805@'
p364
tp365
Rp366
sg5
(lp367
(i__main__
Decision_Tree
p368
(dp369
g2
g48
sg4
g10
(g14
S'\x00\x00\x00\x00\x00\x00\x16@'
p370
tp371
Rp372
sg5
(lp373
(i__main__
Decision_Tree
p374
(dp375
g2
g62
sg4
g10
(g65
S'\x04\x00\x00\x00\x00\x00\x00\x00'
p376
tp377
Rp378
sba(i__main__
Decision_Tree
p379
(dp380
g2
g62
sg4
g10
(g65
S'\x04\x00\x00\x00\x00\x00\x00\x00'
p381
tp382
Rp383
sbasba(i__main__
Decision_Tree
p384
(dp385
g2
g48
sg4
g10
(g14
S'\x00\x00\x00\x00\x00\x00\x12@'
p386
tp387
Rp388
sg5
(lp389
(i__main__
Decision_Tree
p390
(dp391
g2
g62
sg4
g10
(g65
S'\x04\x00\x00\x00\x00\x00\x00\x00'
p392
tp393
Rp394
sba(i__main__
Decision_Tree
p395
(dp396
g2
g62
sg4
g10
(g65
S'\x04\x00\x00\x00\x00\x00\x00\x00'
p397
tp398
Rp399
sbasbasba(i__main__
Decision_Tree
p400
(dp401
g2
g41
sg4
g10
(g14
S'\x00\x00\x00\x00\x00\x805@'
p402
tp403
Rp404
sg5
(lp405
(i__main__
Decision_Tree
p406
(dp407
g2
g48
sg4
g10
(g14
S'\x00\x00\x00\x00\x00\x00\x04@'
p408
tp409
Rp410
sg5
(lp411
(i__main__
Decision_Tree
p412
(dp413
g2
g62
sg4
g10
(g65
S'\x04\x00\x00\x00\x00\x00\x00\x00'
p414
tp415
Rp416
sba(i__main__
Decision_Tree
p417
(dp418
g2
g62
sg4
g10
(g65
S'\x05\x00\x00\x00\x00\x00\x00\x00'
p419
tp420
Rp421
sbasba(i__main__
Decision_Tree
p422
(dp423
g2
g48
sg4
g10
(g14
S'\x00\x00\x00\x00\x00\x00)@'
p424
tp425
Rp426
sg5
(lp427
(i__main__
Decision_Tree
p428
(dp429
g2
g62
sg4
g10
(g65
S'\x04\x00\x00\x00\x00\x00\x00\x00'
p430
tp431
Rp432
sba(i__main__
Decision_Tree
p433
(dp434
g2
g62
sg4
g10
(g65
S'\x04\x00\x00\x00\x00\x00\x00\x00'
p435
tp436
Rp437
sbasbasbasba(i__main__
Decision_Tree
p438
(dp439
g2
g41
sg4
g10
(g14
S'\x00\x00\x00\x00\x00\x00>@'
p440
tp441
Rp442
sg5
(lp443
(i__main__
Decision_Tree
p444
(dp445
g2
g48
sg4
g10
(g14
S'\x00\x00\x00\x00\x00\x00\x0c@'
p446
tp447
Rp448
sg5
(lp449
(i__main__
Decision_Tree
p450
(dp451
g2
g55
sg4
(lp452
g57
ag58
asg5
(lp453
(i__main__
Decision_Tree
p454
(dp455
g2
g62
sg4
g10
(g65
S'\x05\x00\x00\x00\x00\x00\x00\x00'
p456
tp457
Rp458
sba(i__main__
Decision_Tree
p459
(dp460
g2
g62
sg4
g10
(g65
S'\x05\x00\x00\x00\x00\x00\x00\x00'
p461
tp462
Rp463
sbasba(i__main__
Decision_Tree
p464
(dp465
g2
g55
sg4
(lp466
g57
ag58
asg5
(lp467
(i__main__
Decision_Tree
p468
(dp469
g2
g62
sg4
g10
(g65
S'\x05\x00\x00\x00\x00\x00\x00\x00'
p470
tp471
Rp472
sba(i__main__
Decision_Tree
p473
(dp474
g2
g62
sg4
g10
(g65
S'\x05\x00\x00\x00\x00\x00\x00\x00'
p475
tp476
Rp477
sbasbasba(i__main__
Decision_Tree
p478
(dp479
g2
g48
sg4
g10
(g14
S'\x00\x00\x00\x00\x00\x802@'
p480
tp481
Rp482
sg5
(lp483
(i__main__
Decision_Tree
p484
(dp485
g2
g55
sg4
(lp486
g57
ag58
asg5
(lp487
(i__main__
Decision_Tree
p488
(dp489
g2
g62
sg4
g10
(g65
S'\x05\x00\x00\x00\x00\x00\x00\x00'
p490
tp491
Rp492
sba(i__main__
Decision_Tree
p493
(dp494
g2
g62
sg4
g10
(g65
S'\x04\x00\x00\x00\x00\x00\x00\x00'
p495
tp496
Rp497
sbasba(i__main__
Decision_Tree
p498
(dp499
g2
g55
sg4
(lp500
g57
ag58
asg5
(lp501
(i__main__
Decision_Tree
p502
(dp503
g2
g62
sg4
g10
(g65
S'\x05\x00\x00\x00\x00\x00\x00\x00'
p504
tp505
Rp506
sba(i__main__
Decision_Tree
p507
(dp508
g2
g62
sg4
g10
(g65
S'\x04\x00\x00\x00\x00\x00\x00\x00'
p509
tp510
Rp511
sbasbasbasba(i__main__
Decision_Tree
p512
(dp513
g2
g55
sg4
(lp514
g57
ag58
asg5
(lp515
(i__main__
Decision_Tree
p516
(dp517
g2
g48
sg4
g10
(g14
S'\x00\x00\x00\x00\x00\x00\x12@'
p518
tp519
Rp520
sg5
(lp521
(i__main__
Decision_Tree
p522
(dp523
g2
g41
sg4
g10
(g14
S'\x00\x00\x00\x00\x00\x00>@'
p524
tp525
Rp526
sg5
(lp527
(i__main__
Decision_Tree
p528
(dp529
g2
g62
sg4
g10
(g65
S'\x05\x00\x00\x00\x00\x00\x00\x00'
p530
tp531
Rp532
sba(i__main__
Decision_Tree
p533
(dp534
g2
g62
sg4
g10
(g65
S'\x04\x00\x00\x00\x00\x00\x00\x00'
p535
tp536
Rp537
sbasba(i__main__
Decision_Tree
p538
(dp539
g2
g41
sg4
g10
(g14
S'\x00\x00\x00\x00\x00\x80J@'
p540
tp541
Rp542
sg5
(lp543
(i__main__
Decision_Tree
p544
(dp545
g2
g62
sg4
g10
(g65
S'\x04\x00\x00\x00\x00\x00\x00\x00'
p546
tp547
Rp548
sba(i__main__
Decision_Tree
p549
(dp550
g2
g62
sg4
g10
(g65
S'\x04\x00\x00\x00\x00\x00\x00\x00'
p551
tp552
Rp553
sbasbasba(i__main__
Decision_Tree
p554
(dp555
g2
g48
sg4
g10
(g14
S'\x00\x00\x00\x00\x00\x00\x14@'
p556
tp557
Rp558
sg5
(lp559
(i__main__
Decision_Tree
p560
(dp561
g2
g41
sg4
g10
(g14
S'\x00\x00\x00\x00\x00\x00D@'
p562
tp563
Rp564
sg5
(lp565
(i__main__
Decision_Tree
p566
(dp567
g2
g62
sg4
g10
(g65
S'\x03\x00\x00\x00\x00\x00\x00\x00'
p568
tp569
Rp570
sba(i__main__
Decision_Tree
p571
(dp572
g2
g62
sg4
g10
(g65
S'\x03\x00\x00\x00\x00\x00\x00\x00'
p573
tp574
Rp575
sbasba(i__main__
Decision_Tree
p576
(dp577
g2
g41
sg4
g10
(g14
S'\x00\x00\x00\x00\x00\x00>@'
p578
tp579
Rp580
sg5
(lp581
(i__main__
Decision_Tree
p582
(dp583
g2
g62
sg4
g10
(g65
S'\x04\x00\x00\x00\x00\x00\x00\x00'
p584
tp585
Rp586
sba(i__main__
Decision_Tree
p587
(dp588
g2
g62
sg4
g10
(g65
S'\x03\x00\x00\x00\x00\x00\x00\x00'
p589
tp590
Rp591
sbasbasbasba(i__main__
Decision_Tree
p592
(dp593
g2
g41
sg4
g10
(g14
S'\x00\x00\x00\x00\x00\x805@'
p594
tp595
Rp596
sg5
(lp597
(i__main__
Decision_Tree
p598
(dp599
g2
g48
sg4
g10
(g14
S'\x00\x00\x00\x00\x00\x00\x12@'
p600
tp601
Rp602
sg5
(lp603
(i__main__
Decision_Tree
p604
(dp605
g2
g55
sg4
(lp606
g57
ag58
asg5
(lp607
(i__main__
Decision_Tree
p608
(dp609
g2
g62
sg4
g10
(g65
S'\x05\x00\x00\x00\x00\x00\x00\x00'
p610
tp611
Rp612
sba(i__main__
Decision_Tree
p613
(dp614
g2
g62
sg4
g10
(g65
S'\x04\x00\x00\x00\x00\x00\x00\x00'
p615
tp616
Rp617
sbasba(i__main__
Decision_Tree
p618
(dp619
g2
g55
sg4
(lp620
g57
ag58
asg5
(lp621
(i__main__
Decision_Tree
p622
(dp623
g2
g62
sg4
g10
(g65
S'\x05\x00\x00\x00\x00\x00\x00\x00'
p624
tp625
Rp626
sba(i__main__
Decision_Tree
p627
(dp628
g2
g62
sg4
g10
(g65
S'\x05\x00\x00\x00\x00\x00\x00\x00'
p629
tp630
Rp631
sbasbasba(i__main__
Decision_Tree
p632
(dp633
g2
g48
sg4
g10
(g14
S'\x00\x00\x00\x00\x00\x00%@'
p634
tp635
Rp636
sg5
(lp637
(i__main__
Decision_Tree
p638
(dp639
g2
g55
sg4
(lp640
g57
ag58
asg5
(lp641
(i__main__
Decision_Tree
p642
(dp643
g2
g62
sg4
g10
(g65
S'\x04\x00\x00\x00\x00\x00\x00\x00'
p644
tp645
Rp646
sba(i__main__
Decision_Tree
p647
(dp648
g2
g62
sg4
g10
(g65
S'\x04\x00\x00\x00\x00\x00\x00\x00'
p649
tp650
Rp651
sbasba(i__main__
Decision_Tree
p652
(dp653
g2
g55
sg4
(lp654
g57
ag58
asg5
(lp655
(i__main__
Decision_Tree
p656
(dp657
g2
g62
sg4
g10
(g65
S'\x05\x00\x00\x00\x00\x00\x00\x00'
p658
tp659
Rp660
sba(i__main__
Decision_Tree
p661
(dp662
g2
g62
sg4
g10
(g65
S'\x04\x00\x00\x00\x00\x00\x00\x00'
p663
tp664
Rp665
sbasbasbasba(i__main__
Decision_Tree
p666
(dp667
g2
g55
sg4
(lp668
g57
ag58
asg5
(lp669
(i__main__
Decision_Tree
p670
(dp671
g2
g41
sg4
g10
(g14
S'\x00\x00\x00\x00\x00\x00>@'
p672
tp673
Rp674
sg5
(lp675
(i__main__
Decision_Tree
p676
(dp677
g2
g48
sg4
g10
(g14
S'\x00\x00\x00\x00\x00\x803@'
p678
tp679
Rp680
sg5
(lp681
(i__main__
Decision_Tree
p682
(dp683
g2
g62
sg4
g10
(g65
S'\x05\x00\x00\x00\x00\x00\x00\x00'
p684
tp685
Rp686
sba(i__main__
Decision_Tree
p687
(dp688
g2
g62
sg4
g10
(g65
S'\x05\x00\x00\x00\x00\x00\x00\x00'
p689
tp690
Rp691
sbasba(i__main__
Decision_Tree
p692
(dp693
g2
g48
sg4
g10
(g14
S"\x00\x00\x00\x00\x00\x00'@"
p694
tp695
Rp696
sg5
(lp697
(i__main__
Decision_Tree
p698
(dp699
g2
g62
sg4
g10
(g65
S'\x05\x00\x00\x00\x00\x00\x00\x00'
p700
tp701
Rp702
sba(i__main__
Decision_Tree
p703
(dp704
g2
g62
sg4
g10
(g65
S'\x05\x00\x00\x00\x00\x00\x00\x00'
p705
tp706
Rp707
sbasbasba(i__main__
Decision_Tree
p708
(dp709
g2
g48
sg4
g10
(g14
S'\x00\x00\x00\x00\x00\x00\x12@'
p710
tp711
Rp712
sg5
(lp713
(i__main__
Decision_Tree
p714
(dp715
g2
g41
sg4
g10
(g14
S'\x00\x00\x00\x00\x00\x00#@'
p716
tp717
Rp718
sg5
(lp719
(i__main__
Decision_Tree
p720
(dp721
g2
g62
sg4
g10
(g65
S'\x05\x00\x00\x00\x00\x00\x00\x00'
p722
tp723
Rp724
sba(i__main__
Decision_Tree
p725
(dp726
g2
g62
sg4
g10
(g65
S'\x04\x00\x00\x00\x00\x00\x00\x00'
p727
tp728
Rp729
sbasba(i__main__
Decision_Tree
p730
(dp731
g2
g41
sg4
g10
(g14
S'\x00\x00\x00\x00\x00\x00D@'
p732
tp733
Rp734
sg5
(lp735
(i__main__
Decision_Tree
p736
(dp737
g2
g62
sg4
g10
(g65
S'\x05\x00\x00\x00\x00\x00\x00\x00'
p738
tp739
Rp740
sba(i__main__
Decision_Tree
p741
(dp742
g2
g62
sg4
g10
(g65
S'\x05\x00\x00\x00\x00\x00\x00\x00'
p743
tp744
Rp745
sbasbasbasba(i__main__
Decision_Tree
p746
(dp747
g2
g41
sg4
g10
(g14
S'\x00\x00\x00\x00\x00\x805@'
p748
tp749
Rp750
sg5
(lp751
(i__main__
Decision_Tree
p752
(dp753
g2
g48
sg4
g10
(g14
S'\x00\x00\x00\x00\x00\x00\x12@'
p754
tp755
Rp756
sg5
(lp757
(i__main__
Decision_Tree
p758
(dp759
g2
g55
sg4
(lp760
g57
ag58
asg5
(lp761
(i__main__
Decision_Tree
p762
(dp763
g2
g62
sg4
g10
(g65
S'\x05\x00\x00\x00\x00\x00\x00\x00'
p764
tp765
Rp766
sba(i__main__
Decision_Tree
p767
(dp768
g2
g62
sg4
g10
(g65
S'\x05\x00\x00\x00\x00\x00\x00\x00'
p769
tp770
Rp771
sbasba(i__main__
Decision_Tree
p772
(dp773
g2
g55
sg4
(lp774
g57
ag58
asg5
(lp775
(i__main__
Decision_Tree
p776
(dp777
g2
g62
sg4
g10
(g65
S'\x05\x00\x00\x00\x00\x00\x00\x00'
p778
tp779
Rp780
sba(i__main__
Decision_Tree
p781
(dp782
g2
g62
sg4
g10
(g65
S'\x05\x00\x00\x00\x00\x00\x00\x00'
p783
tp784
Rp785
sbasbasba(i__main__
Decision_Tree
p786
(dp787
g2
g48
sg4
g10
(g14
S'\x00\x00\x00\x00\x00\x00-@'
p788
tp789
Rp790
sg5
(lp791
(i__main__
Decision_Tree
p792
(dp793
g2
g55
sg4
(lp794
g57
ag58
asg5
(lp795
(i__main__
Decision_Tree
p796
(dp797
g2
g62
sg4
g10
(g65
S'\x05\x00\x00\x00\x00\x00\x00\x00'
p798
tp799
Rp800
sba(i__main__
Decision_Tree
p801
(dp802
g2
g62
sg4
g10
(g65
S'\x05\x00\x00\x00\x00\x00\x00\x00'
p803
tp804
Rp805
sbasba(i__main__
Decision_Tree
p806
(dp807
g2
g55
sg4
(lp808
g57
ag58
asg5
(lp809
(i__main__
Decision_Tree
p810
(dp811
g2
g62
sg4
g10
(g65
S'\x05\x00\x00\x00\x00\x00\x00\x00'
p812
tp813
Rp814
sba(i__main__
Decision_Tree
p815
(dp816
g2
g62
sg4
g10
(g65
S'\x05\x00\x00\x00\x00\x00\x00\x00'
p817
tp818
Rp819
sbasbasbasba(i__main__
Decision_Tree
p820
(dp821
g2
g41
sg4
g10
(g14
S'\x00\x00\x00\x00\x00\xc0G@'
p822
tp823
Rp824
sg5
(lp825
(i__main__
Decision_Tree
p826
(dp827
g2
g48
sg4
g10
(g14
S"\x00\x00\x00\x00\x00\x00'@"
p828
tp829
Rp830
sg5
(lp831
(i__main__
Decision_Tree
p832
(dp833
g2
g55
sg4
(lp834
g57
ag58
asg5
(lp835
(i__main__
Decision_Tree
p836
(dp837
g2
g62
sg4
g10
(g65
S'\x04\x00\x00\x00\x00\x00\x00\x00'
p838
tp839
Rp840
sba(i__main__
Decision_Tree
p841
(dp842
g2
g62
sg4
g10
(g65
S'\x04\x00\x00\x00\x00\x00\x00\x00'
p843
tp844
Rp845
sbasba(i__main__
Decision_Tree
p846
(dp847
g2
g55
sg4
(lp848
g57
ag58
asg5
(lp849
(i__main__
Decision_Tree
p850
(dp851
g2
g62
sg4
g10
(g65
S'\x04\x00\x00\x00\x00\x00\x00\x00'
p852
tp853
Rp854
sba(i__main__
Decision_Tree
p855
(dp856
g2
g62
sg4
g10
(g65
S'\x04\x00\x00\x00\x00\x00\x00\x00'
p857
tp858
Rp859
sbasbasba(i__main__
Decision_Tree
p860
(dp861
g2
g55
sg4
(lp862
g57
ag58
asg5
(lp863
(i__main__
Decision_Tree
p864
(dp865
g2
g48
sg4
g10
(g14
S'\x00\x00\x00\x00\x00\x00\xe0?'
p866
tp867
Rp868
sg5
(lp869
(i__main__
Decision_Tree
p870
(dp871
g2
g62
sg4
g10
(g65
S'\x04\x00\x00\x00\x00\x00\x00\x00'
p872
tp873
Rp874
sba(i__main__
Decision_Tree
p875
(dp876
g2
g62
sg4
g10
(g65
S'\x05\x00\x00\x00\x00\x00\x00\x00'
p877
tp878
Rp879
sbasba(i__main__
Decision_Tree
p880
(dp881
g2
g48
sg4
g10
(g14
S'\x00\x00\x00\x00\x00\x00+@'
p882
tp883
Rp884
sg5
(lp885
(i__main__
Decision_Tree
p886
(dp887
g2
g62
sg4
g10
(g65
S'\x04\x00\x00\x00\x00\x00\x00\x00'
p888
tp889
Rp890
sba(i__main__
Decision_Tree
p891
(dp892
g2
g62
sg4
g10
(g65
S'\x03\x00\x00\x00\x00\x00\x00\x00'
p893
tp894
Rp895
sbasbasbasba(i__main__
Decision_Tree
p896
(dp897
g2
g55
sg4
(lp898
g57
ag58
asg5
(lp899
(i__main__
Decision_Tree
p900
(dp901
g2
g41
sg4
g10
(g14
S'\x00\x00\x00\x00\x00\x805@'
p902
tp903
Rp904
sg5
(lp905
(i__main__
Decision_Tree
p906
(dp907
g2
g48
sg4
g10
(g14
S'\x00\x00\x00\x00\x00\x00\x16@'
p908
tp909
Rp910
sg5
(lp911
(i__main__
Decision_Tree
p912
(dp913
g2
g62
sg4
g10
(g65
S'\x04\x00\x00\x00\x00\x00\x00\x00'
p914
tp915
Rp916
sba(i__main__
Decision_Tree
p917
(dp918
g2
g62
sg4
g10
(g65
S'\x04\x00\x00\x00\x00\x00\x00\x00'
p919
tp920
Rp921
sbasba(i__main__
Decision_Tree
p922
(dp923
g2
g48
sg4
g10
(g14
S'\x00\x00\x00\x00\x00\x00\x16@'
p924
tp925
Rp926
sg5
(lp927
(i__main__
Decision_Tree
p928
(dp929
g2
g62
sg4
g10
(g65
S'\x04\x00\x00\x00\x00\x00\x00\x00'
p930
tp931
Rp932
sba(i__main__
Decision_Tree
p933
(dp934
g2
g62
sg4
g10
(g65
S'\x04\x00\x00\x00\x00\x00\x00\x00'
p935
tp936
Rp937
sbasbasba(i__main__
Decision_Tree
p938
(dp939
g2
g41
sg4
g10
(g14
S'\x00\x00\x00\x00\x00\x805@'
p940
tp941
Rp942
sg5
(lp943
(i__main__
Decision_Tree
p944
(dp945
g2
g48
sg4
g10
(g14
S'\x00\x00\x00\x00\x00\x000@'
p946
tp947
Rp948
sg5
(lp949
(i__main__
Decision_Tree
p950
(dp951
g2
g62
sg4
g10
(g65
S'\x04\x00\x00\x00\x00\x00\x00\x00'
p952
tp953
Rp954
sba(i__main__
Decision_Tree
p955
(dp956
g2
g62
sg4
g10
(g65
S'\x05\x00\x00\x00\x00\x00\x00\x00'
p957
tp958
Rp959
sbasba(i__main__
Decision_Tree
p960
(dp961
g2
g48
sg4
g10
(g14
S'\x00\x00\x00\x00\x00\x00\xf8?'
p962
tp963
Rp964
sg5
(lp965
(i__main__
Decision_Tree
p966
(dp967
g2
g62
sg4
g10
(g65
S'\x04\x00\x00\x00\x00\x00\x00\x00'
p968
tp969
Rp970
sba(i__main__
Decision_Tree
p971
(dp972
g2
g62
sg4
g10
(g65
S'\x04\x00\x00\x00\x00\x00\x00\x00'
p973
tp974
Rp975
sbasbasbasba(i__main__
Decision_Tree
p976
(dp977
g2
g41
sg4
g10
(g14
S'\x00\x00\x00\x00\x00\x805@'
p978
tp979
Rp980
sg5
(lp981
(i__main__
Decision_Tree
p982
(dp983
g2
g48
sg4
g10
(g14
S'\x00\x00\x00\x00\x00\x00\x12@'
p984
tp985
Rp986
sg5
(lp987
(i__main__
Decision_Tree
p988
(dp989
g2
g55
sg4
(lp990
g57
ag58
asg5
(lp991
(i__main__
Decision_Tree
p992
(dp993
g2
g62
sg4
g10
(g65
S'\x05\x00\x00\x00\x00\x00\x00\x00'
p994
tp995
Rp996
sba(i__main__
Decision_Tree
p997
(dp998
g2
g62
sg4
g10
(g65
S'\x05\x00\x00\x00\x00\x00\x00\x00'
p999
tp1000
Rp1001
sbasba(i__main__
Decision_Tree
p1002
(dp1003
g2
g55
sg4
(lp1004
g57
ag58
asg5
(lp1005
(i__main__
Decision_Tree
p1006
(dp1007
g2
g62
sg4
g10
(g65
S'\x05\x00\x00\x00\x00\x00\x00\x00'
p1008
tp1009
Rp1010
sba(i__main__
Decision_Tree
p1011
(dp1012
g2
g62
sg4
g10
(g65
S'\x05\x00\x00\x00\x00\x00\x00\x00'
p1013
tp1014
Rp1015
sbasbasba(i__main__
Decision_Tree
p1016
(dp1017
g2
g48
sg4
g10
(g14
S'\x00\x00\x00\x00\x00\x00\xf8?'
p1018
tp1019
Rp1020
sg5
(lp1021
(i__main__
Decision_Tree
p1022
(dp1023
g2
g55
sg4
(lp1024
g57
ag58
asg5
(lp1025
(i__main__
Decision_Tree
p1026
(dp1027
g2
g62
sg4
g10
(g65
S'\x05\x00\x00\x00\x00\x00\x00\x00'
p1028
tp1029
Rp1030
sba(i__main__
Decision_Tree
p1031
(dp1032
g2
g62
sg4
g10
(g65
S'\x05\x00\x00\x00\x00\x00\x00\x00'
p1033
tp1034
Rp1035
sbasba(i__main__
Decision_Tree
p1036
(dp1037
g2
g55
sg4
(lp1038
g57
ag58
asg5
(lp1039
(i__main__
Decision_Tree
p1040
(dp1041
g2
g62
sg4
g10
(g65
S'\x05\x00\x00\x00\x00\x00\x00\x00'
p1042
tp1043
Rp1044
sba(i__main__
Decision_Tree
p1045
(dp1046
g2
g62
sg4
g10
(g65
S'\x05\x00\x00\x00\x00\x00\x00\x00'
p1047
tp1048
Rp1049
sbasbasbasba(i__main__
Decision_Tree
p1050
(dp1051
g2
g55
sg4
(lp1052
g57
ag58
asg5
(lp1053
(i__main__
Decision_Tree
p1054
(dp1055
g2
g41
sg4
g10
(g14
S'\x00\x00\x00\x00\x00\x805@'
p1056
tp1057
Rp1058
sg5
(lp1059
(i__main__
Decision_Tree
p1060
(dp1061
g2
g48
sg4
g10
(g14
S'\x00\x00\x00\x00\x00\x00\x1a@'
p1062
tp1063
Rp1064
sg5
(lp1065
(i__main__
Decision_Tree
p1066
(dp1067
g2
g62
sg4
g10
(g65
S'\x05\x00\x00\x00\x00\x00\x00\x00'
p1068
tp1069
Rp1070
sba(i__main__
Decision_Tree
p1071
(dp1072
g2
g62
sg4
g10
(g65
S'\x05\x00\x00\x00\x00\x00\x00\x00'
p1073
tp1074
Rp1075
sbasba(i__main__
Decision_Tree
p1076
(dp1077
g2
g48
sg4
g10
(g14
S'\x00\x00\x00\x00\x00\x00\x1a@'
p1078
tp1079
Rp1080
sg5
(lp1081
(i__main__
Decision_Tree
p1082
(dp1083
g2
g62
sg4
g10
(g65
S'\x04\x00\x00\x00\x00\x00\x00\x00'
p1084
tp1085
Rp1086
sba(i__main__
Decision_Tree
p1087
(dp1088
g2
g62
sg4
g10
(g65
S'\x04\x00\x00\x00\x00\x00\x00\x00'
p1089
tp1090
Rp1091
sbasbasba(i__main__
Decision_Tree
p1092
(dp1093
g2
g41
sg4
g10
(g14
S'\x00\x00\x00\x00\x00\x80J@'
p1094
tp1095
Rp1096
sg5
(lp1097
(i__main__
Decision_Tree
p1098
(dp1099
g2
g48
sg4
g10
(g14
S'\x00\x00\x00\x00\x00\x801@'
p1100
tp1101
Rp1102
sg5
(lp1103
(i__main__
Decision_Tree
p1104
(dp1105
g2
g62
sg4
g10
(g65
S'\x04\x00\x00\x00\x00\x00\x00\x00'
p1106
tp1107
Rp1108
sba(i__main__
Decision_Tree
p1109
(dp1110
g2
g62
sg4
g10
(g65
S'\x05\x00\x00\x00\x00\x00\x00\x00'
p1111
tp1112
Rp1113
sbasba(i__main__
Decision_Tree
p1114
(dp1115
g2
g48
sg4
g10
(g14
S'\x00\x00\x00\x00\x00\x002@'
p1116
tp1117
Rp1118
sg5
(lp1119
(i__main__
Decision_Tree
p1120
(dp1121
g2
g62
sg4
g10
(g65
S'\x05\x00\x00\x00\x00\x00\x00\x00'
p1122
tp1123
Rp1124
sba(i__main__
Decision_Tree
p1125
(dp1126
g2
g62
sg4
g10
(g65
S'\x05\x00\x00\x00\x00\x00\x00\x00'
p1127
tp1128
Rp1129
sbasbasbasba(i__main__
Decision_Tree
p1130
(dp1131
g2
g41
sg4
g10
(g14
S'\x00\x00\x00\x00\x00\x805@'
p1132
tp1133
Rp1134
sg5
(lp1135
(i__main__
Decision_Tree
p1136
(dp1137
g2
g48
sg4
g10
(g14
S'\x00\x00\x00\x00\x00\x800@'
p1138
tp1139
Rp1140
sg5
(lp1141
(i__main__
Decision_Tree
p1142
(dp1143
g2
g55
sg4
(lp1144
g57
ag58
asg5
(lp1145
(i__main__
Decision_Tree
p1146
(dp1147
g2
g62
sg4
g10
(g65
S'\x05\x00\x00\x00\x00\x00\x00\x00'
p1148
tp1149
Rp1150
sba(i__main__
Decision_Tree
p1151
(dp1152
g2
g62
sg4
g10
(g65
S'\x04\x00\x00\x00\x00\x00\x00\x00'
p1153
tp1154
Rp1155
sbasba(i__main__
Decision_Tree
p1156
(dp1157
g2
g55
sg4
(lp1158
g57
ag58
asg5
(lp1159
(i__main__
Decision_Tree
p1160
(dp1161
g2
g62
sg4
g10
(g65
S'\x05\x00\x00\x00\x00\x00\x00\x00'
p1162
tp1163
Rp1164
sba(i__main__
Decision_Tree
p1165
(dp1166
g2
g62
sg4
g10
(g65
S'\x05\x00\x00\x00\x00\x00\x00\x00'
p1167
tp1168
Rp1169
sbasbasba(i__main__
Decision_Tree
p1170
(dp1171
g2
g48
sg4
g10
(g14
S'\x00\x00\x00\x00\x00\x00\x1a@'
p1172
tp1173
Rp1174
sg5
(lp1175
(i__main__
Decision_Tree
p1176
(dp1177
g2
g55
sg4
(lp1178
g57
ag58
asg5
(lp1179
(i__main__
Decision_Tree
p1180
(dp1181
g2
g62
sg4
g10
(g65
S'\x04\x00\x00\x00\x00\x00\x00\x00'
p1182
tp1183
Rp1184
sba(i__main__
Decision_Tree
p1185
(dp1186
g2
g62
sg4
g10
(g65
S'\x05\x00\x00\x00\x00\x00\x00\x00'
p1187
tp1188
Rp1189
sbasba(i__main__
Decision_Tree
p1190
(dp1191
g2
g55
sg4
(lp1192
g57
ag58
asg5
(lp1193
(i__main__
Decision_Tree
p1194
(dp1195
g2
g62
sg4
g10
(g65
S'\x04\x00\x00\x00\x00\x00\x00\x00'
p1196
tp1197
Rp1198
sba(i__main__
Decision_Tree
p1199
(dp1200
g2
g62
sg4
g10
(g65
S'\x05\x00\x00\x00\x00\x00\x00\x00'
p1201
tp1202
Rp1203
sbasbasbasba(i__main__
Decision_Tree
p1204
(dp1205
g2
g41
sg4
g10
(g14
S'\x00\x00\x00\x00\x00\x805@'
p1206
tp1207
Rp1208
sg5
(lp1209
(i__main__
Decision_Tree
p1210
(dp1211
g2
g48
sg4
g10
(g14
S'\x00\x00\x00\x00\x00\x00\x16@'
p1212
tp1213
Rp1214
sg5
(lp1215
(i__main__
Decision_Tree
p1216
(dp1217
g2
g55
sg4
(lp1218
g57
ag58
asg5
(lp1219
(i__main__
Decision_Tree
p1220
(dp1221
g2
g62
sg4
g10
(g65
S'\x05\x00\x00\x00\x00\x00\x00\x00'
p1222
tp1223
Rp1224
sba(i__main__
Decision_Tree
p1225
(dp1226
g2
g62
sg4
g10
(g65
S'\x04\x00\x00\x00\x00\x00\x00\x00'
p1227
tp1228
Rp1229
sbasba(i__main__
Decision_Tree
p1230
(dp1231
g2
g55
sg4
(lp1232
g57
ag58
asg5
(lp1233
(i__main__
Decision_Tree
p1234
(dp1235
g2
g62
sg4
g10
(g65
S'\x05\x00\x00\x00\x00\x00\x00\x00'
p1236
tp1237
Rp1238
sba(i__main__
Decision_Tree
p1239
(dp1240
g2
g62
sg4
g10
(g65
S'\x05\x00\x00\x00\x00\x00\x00\x00'
p1241
tp1242
Rp1243
sbasbasba(i__main__
Decision_Tree
p1244
(dp1245
g2
g48
sg4
g10
(g14
S'\x00\x00\x00\x00\x00\x803@'
p1246
tp1247
Rp1248
sg5
(lp1249
(i__main__
Decision_Tree
p1250
(dp1251
g2
g55
sg4
(lp1252
g57
ag58
asg5
(lp1253
(i__main__
Decision_Tree
p1254
(dp1255
g2
g62
sg4
g10
(g65
S'\x04\x00\x00\x00\x00\x00\x00\x00'
p1256
tp1257
Rp1258
sba(i__main__
Decision_Tree
p1259
(dp1260
g2
g62
sg4
g10
(g65
S'\x05\x00\x00\x00\x00\x00\x00\x00'
p1261
tp1262
Rp1263
sbasba(i__main__
Decision_Tree
p1264
(dp1265
g2
g55
sg4
(lp1266
g57
ag58
asg5
(lp1267
(i__main__
Decision_Tree
p1268
(dp1269
g2
g62
sg4
g10
(g65
S'\x05\x00\x00\x00\x00\x00\x00\x00'
p1270
tp1271
Rp1272
sba(i__main__
Decision_Tree
p1273
(dp1274
g2
g62
sg4
g10
(g65
S'\x04\x00\x00\x00\x00\x00\x00\x00'
p1275
tp1276
Rp1277
sbasbasbasba(i__main__
Decision_Tree
p1278
(dp1279
g2
g41
sg4
g10
(g14
S'\x00\x00\x00\x00\x00\x805@'
p1280
tp1281
Rp1282
sg5
(lp1283
(i__main__
Decision_Tree
p1284
(dp1285
g2
g48
sg4
g10
(g14
S'\x00\x00\x00\x00\x00\x00\x16@'
p1286
tp1287
Rp1288
sg5
(lp1289
(i__main__
Decision_Tree
p1290
(dp1291
g2
g55
sg4
(lp1292
g57
ag58
asg5
(lp1293
(i__main__
Decision_Tree
p1294
(dp1295
g2
g62
sg4
g10
(g65
S'\x05\x00\x00\x00\x00\x00\x00\x00'
p1296
tp1297
Rp1298
sba(i__main__
Decision_Tree
p1299
(dp1300
g2
g62
sg4
g10
(g65
S'\x05\x00\x00\x00\x00\x00\x00\x00'
p1301
tp1302
Rp1303
sbasba(i__main__
Decision_Tree
p1304
(dp1305
g2
g55
sg4
(lp1306
g57
ag58
asg5
(lp1307
(i__main__
Decision_Tree
p1308
(dp1309
g2
g62
sg4
g10
(g65
S'\x05\x00\x00\x00\x00\x00\x00\x00'
p1310
tp1311
Rp1312
sba(i__main__
Decision_Tree
p1313
(dp1314
g2
g62
sg4
g10
(g65
S'\x05\x00\x00\x00\x00\x00\x00\x00'
p1315
tp1316
Rp1317
sbasbasba(i__main__
Decision_Tree
p1318
(dp1319
g2
g48
sg4
g10
(g14
S'\x00\x00\x00\x00\x00\x00!@'
p1320
tp1321
Rp1322
sg5
(lp1323
(i__main__
Decision_Tree
p1324
(dp1325
g2
g55
sg4
(lp1326
g57
ag58
asg5
(lp1327
(i__main__
Decision_Tree
p1328
(dp1329
g2
g62
sg4
g10
(g65
S'\x05\x00\x00\x00\x00\x00\x00\x00'
p1330
tp1331
Rp1332
sba(i__main__
Decision_Tree
p1333
(dp1334
g2
g62
sg4
g10
(g65
S'\x05\x00\x00\x00\x00\x00\x00\x00'
p1335
tp1336
Rp1337
sbasba(i__main__
Decision_Tree
p1338
(dp1339
g2
g55
sg4
(lp1340
g57
ag58
asg5
(lp1341
(i__main__
Decision_Tree
p1342
(dp1343
g2
g62
sg4
g10
(g65
S'\x05\x00\x00\x00\x00\x00\x00\x00'
p1344
tp1345
Rp1346
sba(i__main__
Decision_Tree
p1347
(dp1348
g2
g62
sg4
g10
(g65
S'\x05\x00\x00\x00\x00\x00\x00\x00'
p1349
tp1350
Rp1351
sbasbasbasba(i__main__
Decision_Tree
p1352
(dp1353
g2
g41
sg4
g10
(g14
S'\x00\x00\x00\x00\x00\x805@'
p1354
tp1355
Rp1356
sg5
(lp1357
(i__main__
Decision_Tree
p1358
(dp1359
g2
g48
sg4
g10
(g14
S'\x00\x00\x00\x00\x00\x800@'
p1360
tp1361
Rp1362
sg5
(lp1363
(i__main__
Decision_Tree
p1364
(dp1365
g2
g55
sg4
(lp1366
g57
ag58
asg5
(lp1367
(i__main__
Decision_Tree
p1368
(dp1369
g2
g62
sg4
g10
(g65
S'\x05\x00\x00\x00\x00\x00\x00\x00'
p1370
tp1371
Rp1372
sba(i__main__
Decision_Tree
p1373
(dp1374
g2
g62
sg4
g10
(g65
S'\x04\x00\x00\x00\x00\x00\x00\x00'
p1375
tp1376
Rp1377
sbasba(i__main__
Decision_Tree
p1378
(dp1379
g2
g55
sg4
(lp1380
g57
ag58
asg5
(lp1381
(i__main__
Decision_Tree
p1382
(dp1383
g2
g62
sg4
g10
(g65
S'\x05\x00\x00\x00\x00\x00\x00\x00'
p1384
tp1385
Rp1386
sba(i__main__
Decision_Tree
p1387
(dp1388
g2
g62
sg4
g10
(g65
S'\x03\x00\x00\x00\x00\x00\x00\x00'
p1389
tp1390
Rp1391
sbasbasba(i__main__
Decision_Tree
p1392
(dp1393
g2
g48
sg4
g10
(g14
S"\x00\x00\x00\x00\x00\x00'@"
p1394
tp1395
Rp1396
sg5
(lp1397
(i__main__
Decision_Tree
p1398
(dp1399
g2
g55
sg4
(lp1400
g57
ag58
asg5
(lp1401
(i__main__
Decision_Tree
p1402
(dp1403
g2
g62
sg4
g10
(g65
S'\x04\x00\x00\x00\x00\x00\x00\x00'
p1404
tp1405
Rp1406
sba(i__main__
Decision_Tree
p1407
(dp1408
g2
g62
sg4
g10
(g65
S'\x04\x00\x00\x00\x00\x00\x00\x00'
p1409
tp1410
Rp1411
sbasba(i__main__
Decision_Tree
p1412
(dp1413
g2
g55
sg4
(lp1414
g57
ag58
asg5
(lp1415
(i__main__
Decision_Tree
p1416
(dp1417
g2
g62
sg4
g10
(g65
S'\x04\x00\x00\x00\x00\x00\x00\x00'
p1418
tp1419
Rp1420
sba(i__main__
Decision_Tree
p1421
(dp1422
g2
g62
sg4
g10
(g65
S'\x04\x00\x00\x00\x00\x00\x00\x00'
p1423
tp1424
Rp1425
sbasbasbasbasba(i__main__
Decision_Tree
p1426
(dp1427
g2
g23
sg4
g24
(g25
(I0
tp1428
g27
tp1429
Rp1430
(I1
(I18
tp1431
g11
(S'S11'
p1432
I0
I1
tp1433
Rp1434
(I3
S'|'
p1435
NNNI11
I1
I0
tp1436
bI00
S"Action\x00\x00\x00\x00\x00Adventure\x00\x00Animation\x00\x00Children's\x00Comedy\x00\x00\x00\x00\x00Crime\x00\x00\x00\x00\x00\x00DocumentaryDrama\x00\x00\x00\x00\x00\x00Fantasy\x00\x00\x00\x00Film-Noir\x00\x00Horror\x00\x00\x00\x00\x00Musical\x00\x00\x00\x00Mystery\x00\x00\x00\x00Romance\x00\x00\x00\x00Sci-Fi\x00\x00\x00\x00\x00Thriller\x00\x00\x00War\x00\x00\x00\x00\x00\x00\x00\x00Western\x00\x00\x00\x00"
p1437
tp1438
bsg5
(lp1439
(i__main__
Decision_Tree
p1440
(dp1441
g2
g41
sg4
g10
(g14
S'\x00\x00\x00\x00\x00\x00>@'
p1442
tp1443
Rp1444
sg5
(lp1445
(i__main__
Decision_Tree
p1446
(dp1447
g2
g48
sg4
g10
(g14
S'\x00\x00\x00\x00\x00\x802@'
p1448
tp1449
Rp1450
sg5
(lp1451
(i__main__
Decision_Tree
p1452
(dp1453
g2
g55
sg4
(lp1454
g57
ag58
asg5
(lp1455
(i__main__
Decision_Tree
p1456
(dp1457
g2
g62
sg4
g10
(g65
S'\x04\x00\x00\x00\x00\x00\x00\x00'
p1458
tp1459
Rp1460
sba(i__main__
Decision_Tree
p1461
(dp1462
g2
g62
sg4
g10
(g65
S'\x04\x00\x00\x00\x00\x00\x00\x00'
p1463
tp1464
Rp1465
sbasba(i__main__
Decision_Tree
p1466
(dp1467
g2
g55
sg4
(lp1468
g57
ag58
asg5
(lp1469
(i__main__
Decision_Tree
p1470
(dp1471
g2
g62
sg4
g10
(g65
S'\x03\x00\x00\x00\x00\x00\x00\x00'
p1472
tp1473
Rp1474
sba(i__main__
Decision_Tree
p1475
(dp1476
g2
g62
sg4
g10
(g65
S'\x03\x00\x00\x00\x00\x00\x00\x00'
p1477
tp1478
Rp1479
sbasbasba(i__main__
Decision_Tree
p1480
(dp1481
g2
g55
sg4
(lp1482
g57
ag58
asg5
(lp1483
(i__main__
Decision_Tree
p1484
(dp1485
g2
g48
sg4
g10
(g14
S'\x00\x00\x00\x00\x00\x00\xf8?'
p1486
tp1487
Rp1488
sg5
(lp1489
(i__main__
Decision_Tree
p1490
(dp1491
g2
g62
sg4
g10
(g65
S'\x04\x00\x00\x00\x00\x00\x00\x00'
p1492
tp1493
Rp1494
sba(i__main__
Decision_Tree
p1495
(dp1496
g2
g62
sg4
g10
(g65
S'\x04\x00\x00\x00\x00\x00\x00\x00'
p1497
tp1498
Rp1499
sbasba(i__main__
Decision_Tree
p1500
(dp1501
g2
g48
sg4
g10
(g14
S'\x00\x00\x00\x00\x00\x00\x0c@'
p1502
tp1503
Rp1504
sg5
(lp1505
(i__main__
Decision_Tree
p1506
(dp1507
g2
g62
sg4
g10
(g65
S'\x04\x00\x00\x00\x00\x00\x00\x00'
p1508
tp1509
Rp1510
sba(i__main__
Decision_Tree
p1511
(dp1512
g2
g62
sg4
g10
(g65
S'\x04\x00\x00\x00\x00\x00\x00\x00'
p1513
tp1514
Rp1515
sbasbasbasba(i__main__
Decision_Tree
p1516
(dp1517
g2
g41
sg4
g10
(g14
S'\x00\x00\x00\x00\x00\x00>@'
p1518
tp1519
Rp1520
sg5
(lp1521
(i__main__
Decision_Tree
p1522
(dp1523
g2
g48
sg4
g10
(g14
S'\x00\x00\x00\x00\x00\x802@'
p1524
tp1525
Rp1526
sg5
(lp1527
(i__main__
Decision_Tree
p1528
(dp1529
g2
g55
sg4
(lp1530
g57
ag58
asg5
(lp1531
(i__main__
Decision_Tree
p1532
(dp1533
g2
g62
sg4
g10
(g65
S'\x04\x00\x00\x00\x00\x00\x00\x00'
p1534
tp1535
Rp1536
sba(i__main__
Decision_Tree
p1537
(dp1538
g2
g62
sg4
g10
(g65
S'\x04\x00\x00\x00\x00\x00\x00\x00'
p1539
tp1540
Rp1541
sbasba(i__main__
Decision_Tree
p1542
(dp1543
g2
g55
sg4
(lp1544
g57
ag58
asg5
(lp1545
(i__main__
Decision_Tree
p1546
(dp1547
g2
g62
sg4
g10
(g65
S'\x03\x00\x00\x00\x00\x00\x00\x00'
p1548
tp1549
Rp1550
sba(i__main__
Decision_Tree
p1551
(dp1552
g2
g62
sg4
g10
(g65
S'\x04\x00\x00\x00\x00\x00\x00\x00'
p1553
tp1554
Rp1555
sbasbasba(i__main__
Decision_Tree
p1556
(dp1557
g2
g48
sg4
g10
(g14
S'\x00\x00\x00\x00\x00\x801@'
p1558
tp1559
Rp1560
sg5
(lp1561
(i__main__
Decision_Tree
p1562
(dp1563
g2
g55
sg4
(lp1564
g57
ag58
asg5
(lp1565
(i__main__
Decision_Tree
p1566
(dp1567
g2
g62
sg4
g10
(g65
S'\x04\x00\x00\x00\x00\x00\x00\x00'
p1568
tp1569
Rp1570
sba(i__main__
Decision_Tree
p1571
(dp1572
g2
g62
sg4
g10
(g65
S'\x04\x00\x00\x00\x00\x00\x00\x00'
p1573
tp1574
Rp1575
sbasba(i__main__
Decision_Tree
p1576
(dp1577
g2
g55
sg4
(lp1578
g57
ag58
asg5
(lp1579
(i__main__
Decision_Tree
p1580
(dp1581
g2
g62
sg4
g10
(g65
S'\x04\x00\x00\x00\x00\x00\x00\x00'
p1582
tp1583
Rp1584
sba(i__main__
Decision_Tree
p1585
(dp1586
g2
g62
sg4
g10
(g65
S'\x04\x00\x00\x00\x00\x00\x00\x00'
p1587
tp1588
Rp1589
sbasbasbasba(i__main__
Decision_Tree
p1590
(dp1591
g2
g55
sg4
(lp1592
g57
ag58
asg5
(lp1593
(i__main__
Decision_Tree
p1594
(dp1595
g2
g41
sg4
g10
(g14
S'\x00\x00\x00\x00\x00\x00#@'
p1596
tp1597
Rp1598
sg5
(lp1599
(i__main__
Decision_Tree
p1600
(dp1601
g2
g48
sg4
g10
(g14
S'\x00\x00\x00\x00\x00\x00\x08@'
p1602
tp1603
Rp1604
sg5
(lp1605
(i__main__
Decision_Tree
p1606
(dp1607
g2
g62
sg4
g10
(g65
S'\x04\x00\x00\x00\x00\x00\x00\x00'
p1608
tp1609
Rp1610
sba(i__main__
Decision_Tree
p1611
(dp1612
g2
g62
sg4
g10
(g65
S'\x04\x00\x00\x00\x00\x00\x00\x00'
p1613
tp1614
Rp1615
sbasba(i__main__
Decision_Tree
p1616
(dp1617
g2
g48
sg4
g10
(g14
S'\x00\x00\x00\x00\x00\x00\xf8?'
p1618
tp1619
Rp1620
sg5
(lp1621
(i__main__
Decision_Tree
p1622
(dp1623
g2
g62
sg4
g10
(g65
S'\x04\x00\x00\x00\x00\x00\x00\x00'
p1624
tp1625
Rp1626
sba(i__main__
Decision_Tree
p1627
(dp1628
g2
g62
sg4
g10
(g65
S'\x04\x00\x00\x00\x00\x00\x00\x00'
p1629
tp1630
Rp1631
sbasbasba(i__main__
Decision_Tree
p1632
(dp1633
g2
g41
sg4
g10
(g14
S'\x00\x00\x00\x00\x00\x805@'
p1634
tp1635
Rp1636
sg5
(lp1637
(i__main__
Decision_Tree
p1638
(dp1639
g2
g48
sg4
g10
(g14
S'\x00\x00\x00\x00\x00\x00 @'
p1640
tp1641
Rp1642
sg5
(lp1643
(i__main__
Decision_Tree
p1644
(dp1645
g2
g62
sg4
g10
(g65
S'\x04\x00\x00\x00\x00\x00\x00\x00'
p1646
tp1647
Rp1648
sba(i__main__
Decision_Tree
p1649
(dp1650
g2
g62
sg4
g10
(g65
S'\x04\x00\x00\x00\x00\x00\x00\x00'
p1651
tp1652
Rp1653
sbasba(i__main__
Decision_Tree
p1654
(dp1655
g2
g48
sg4
g10
(g14
S'\x00\x00\x00\x00\x00\x00+@'
p1656
tp1657
Rp1658
sg5
(lp1659
(i__main__
Decision_Tree
p1660
(dp1661
g2
g62
sg4
g10
(g65
S'\x04\x00\x00\x00\x00\x00\x00\x00'
p1662
tp1663
Rp1664
sba(i__main__
Decision_Tree
p1665
(dp1666
g2
g62
sg4
g10
(g65
S'\x04\x00\x00\x00\x00\x00\x00\x00'
p1667
tp1668
Rp1669
sbasbasbasba(i__main__
Decision_Tree
p1670
(dp1671
g2
g55
sg4
(lp1672
g57
ag58
asg5
(lp1673
(i__main__
Decision_Tree
p1674
(dp1675
g2
g41
sg4
g10
(g14
S'\x00\x00\x00\x00\x00\x00>@'
p1676
tp1677
Rp1678
sg5
(lp1679
(i__main__
Decision_Tree
p1680
(dp1681
g2
g48
sg4
g10
(g14
S'\x00\x00\x00\x00\x00\x802@'
p1682
tp1683
Rp1684
sg5
(lp1685
(i__main__
Decision_Tree
p1686
(dp1687
g2
g62
sg4
g10
(g65
S'\x04\x00\x00\x00\x00\x00\x00\x00'
p1688
tp1689
Rp1690
sba(i__main__
Decision_Tree
p1691
(dp1692
g2
g62
sg4
g10
(g65
S'\x04\x00\x00\x00\x00\x00\x00\x00'
p1693
tp1694
Rp1695
sbasba(i__main__
Decision_Tree
p1696
(dp1697
g2
g48
sg4
g10
(g14
S'\x00\x00\x00\x00\x00\x00%@'
p1698
tp1699
Rp1700
sg5
(lp1701
(i__main__
Decision_Tree
p1702
(dp1703
g2
g62
sg4
g10
(g65
S'\x04\x00\x00\x00\x00\x00\x00\x00'
p1704
tp1705
Rp1706
sba(i__main__
Decision_Tree
p1707
(dp1708
g2
g62
sg4
g10
(g65
S'\x04\x00\x00\x00\x00\x00\x00\x00'
p1709
tp1710
Rp1711
sbasbasba(i__main__
Decision_Tree
p1712
(dp1713
g2
g41
sg4
g10
(g14
S'\x00\x00\x00\x00\x00\x805@'
p1714
tp1715
Rp1716
sg5
(lp1717
(i__main__
Decision_Tree
p1718
(dp1719
g2
g48
sg4
g10
(g14
S'\x00\x00\x00\x00\x00\x803@'
p1720
tp1721
Rp1722
sg5
(lp1723
(i__main__
Decision_Tree
p1724
(dp1725
g2
g62
sg4
g10
(g65
S'\x04\x00\x00\x00\x00\x00\x00\x00'
p1726
tp1727
Rp1728
sba(i__main__
Decision_Tree
p1729
(dp1730
g2
g62
sg4
g10
(g65
S'\x01\x00\x00\x00\x00\x00\x00\x00'
p1731
tp1732
Rp1733
sbasba(i__main__
Decision_Tree
p1734
(dp1735
g2
g48
sg4
g10
(g14
S'\x00\x00\x00\x00\x00\x00\x0c@'
p1736
tp1737
Rp1738
sg5
(lp1739
(i__main__
Decision_Tree
p1740
(dp1741
g2
g62
sg4
g10
(g65
S'\x04\x00\x00\x00\x00\x00\x00\x00'
p1742
tp1743
Rp1744
sba(i__main__
Decision_Tree
p1745
(dp1746
g2
g62
sg4
g10
(g65
S'\x04\x00\x00\x00\x00\x00\x00\x00'
p1747
tp1748
Rp1749
sbasbasbasba(i__main__
Decision_Tree
p1750
(dp1751
g2
g55
sg4
(lp1752
g57
ag58
asg5
(lp1753
(i__main__
Decision_Tree
p1754
(dp1755
g2
g48
sg4
g10
(g14
S'\x00\x00\x00\x00\x00\x802@'
p1756
tp1757
Rp1758
sg5
(lp1759
(i__main__
Decision_Tree
p1760
(dp1761
g2
g41
sg4
g10
(g14
S'\x00\x00\x00\x00\x00\x805@'
p1762
tp1763
Rp1764
sg5
(lp1765
(i__main__
Decision_Tree
p1766
(dp1767
g2
g62
sg4
g10
(g65
S'\x04\x00\x00\x00\x00\x00\x00\x00'
p1768
tp1769
Rp1770
sba(i__main__
Decision_Tree
p1771
(dp1772
g2
g62
sg4
g10
(g65
S'\x04\x00\x00\x00\x00\x00\x00\x00'
p1773
tp1774
Rp1775
sbasba(i__main__
Decision_Tree
p1776
(dp1777
g2
g41
sg4
g10
(g14
S'\x00\x00\x00\x00\x00\xc0G@'
p1778
tp1779
Rp1780
sg5
(lp1781
(i__main__
Decision_Tree
p1782
(dp1783
g2
g62
sg4
g10
(g65
S'\x04\x00\x00\x00\x00\x00\x00\x00'
p1784
tp1785
Rp1786
sba(i__main__
Decision_Tree
p1787
(dp1788
g2
g62
sg4
g10
(g65
S'\x04\x00\x00\x00\x00\x00\x00\x00'
p1789
tp1790
Rp1791
sbasbasba(i__main__
Decision_Tree
p1792
(dp1793
g2
g41
sg4
g10
(g14
S'\x00\x00\x00\x00\x00\x805@'
p1794
tp1795
Rp1796
sg5
(lp1797
(i__main__
Decision_Tree
p1798
(dp1799
g2
g48
sg4
g10
(g14
S'\x00\x00\x00\x00\x00\x803@'
p1800
tp1801
Rp1802
sg5
(lp1803
(i__main__
Decision_Tree
p1804
(dp1805
g2
g62
sg4
g10
(g65
S'\x04\x00\x00\x00\x00\x00\x00\x00'
p1806
tp1807
Rp1808
sba(i__main__
Decision_Tree
p1809
(dp1810
g2
g62
sg4
g10
(g65
S'\x03\x00\x00\x00\x00\x00\x00\x00'
p1811
tp1812
Rp1813
sbasba(i__main__
Decision_Tree
p1814
(dp1815
g2
g48
sg4
g10
(g14
S'\x00\x00\x00\x00\x00\x00\xe0?'
p1816
tp1817
Rp1818
sg5
(lp1819
(i__main__
Decision_Tree
p1820
(dp1821
g2
g62
sg4
g10
(g65
S'\x04\x00\x00\x00\x00\x00\x00\x00'
p1822
tp1823
Rp1824
sba(i__main__
Decision_Tree
p1825
(dp1826
g2
g62
sg4
g10
(g65
S'\x04\x00\x00\x00\x00\x00\x00\x00'
p1827
tp1828
Rp1829
sbasbasbasba(i__main__
Decision_Tree
p1830
(dp1831
g2
g41
sg4
g10
(g14
S'\x00\x00\x00\x00\x00\x805@'
p1832
tp1833
Rp1834
sg5
(lp1835
(i__main__
Decision_Tree
p1836
(dp1837
g2
g55
sg4
(lp1838
g57
ag58
asg5
(lp1839
(i__main__
Decision_Tree
p1840
(dp1841
g2
g48
sg4
g10
(g14
S'\x00\x00\x00\x00\x00\x00\xf8?'
p1842
tp1843
Rp1844
sg5
(lp1845
(i__main__
Decision_Tree
p1846
(dp1847
g2
g62
sg4
g10
(g65
S'\x04\x00\x00\x00\x00\x00\x00\x00'
p1848
tp1849
Rp1850
sba(i__main__
Decision_Tree
p1851
(dp1852
g2
g62
sg4
g10
(g65
S'\x04\x00\x00\x00\x00\x00\x00\x00'
p1853
tp1854
Rp1855
sbasba(i__main__
Decision_Tree
p1856
(dp1857
g2
g48
sg4
g10
(g14
S'\x00\x00\x00\x00\x00\x00/@'
p1858
tp1859
Rp1860
sg5
(lp1861
(i__main__
Decision_Tree
p1862
(dp1863
g2
g62
sg4
g10
(g65
S'\x04\x00\x00\x00\x00\x00\x00\x00'
p1864
tp1865
Rp1866
sba(i__main__
Decision_Tree
p1867
(dp1868
g2
g62
sg4
g10
(g65
S'\x04\x00\x00\x00\x00\x00\x00\x00'
p1869
tp1870
Rp1871
sbasbasba(i__main__
Decision_Tree
p1872
(dp1873
g2
g48
sg4
g10
(g14
S'\x00\x00\x00\x00\x00\x00\x12@'
p1874
tp1875
Rp1876
sg5
(lp1877
(i__main__
Decision_Tree
p1878
(dp1879
g2
g55
sg4
(lp1880
g57
ag58
asg5
(lp1881
(i__main__
Decision_Tree
p1882
(dp1883
g2
g62
sg4
g10
(g65
S'\x04\x00\x00\x00\x00\x00\x00\x00'
p1884
tp1885
Rp1886
sba(i__main__
Decision_Tree
p1887
(dp1888
g2
g62
sg4
g10
(g65
S'\x04\x00\x00\x00\x00\x00\x00\x00'
p1889
tp1890
Rp1891
sbasba(i__main__
Decision_Tree
p1892
(dp1893
g2
g55
sg4
(lp1894
g57
ag58
asg5
(lp1895
(i__main__
Decision_Tree
p1896
(dp1897
g2
g62
sg4
g10
(g65
S'\x04\x00\x00\x00\x00\x00\x00\x00'
p1898
tp1899
Rp1900
sba(i__main__
Decision_Tree
p1901
(dp1902
g2
g62
sg4
g10
(g65
S'\x04\x00\x00\x00\x00\x00\x00\x00'
p1903
tp1904
Rp1905
sbasbasbasba(i__main__
Decision_Tree
p1906
(dp1907
g2
g55
sg4
(lp1908
g57
ag58
asg5
(lp1909
(i__main__
Decision_Tree
p1910
(dp1911
g2
g48
sg4
g10
(g14
S'\x00\x00\x00\x00\x00\x00\xe0?'
p1912
tp1913
Rp1914
sg5
(lp1915
(i__main__
Decision_Tree
p1916
(dp1917
g2
g41
sg4
g10
(g14
S'\x00\x00\x00\x00\x00\xc0G@'
p1918
tp1919
Rp1920
sg5
(lp1921
(i__main__
Decision_Tree
p1922
(dp1923
g2
g62
sg4
g10
(g65
S'\x04\x00\x00\x00\x00\x00\x00\x00'
p1924
tp1925
Rp1926
sba(i__main__
Decision_Tree
p1927
(dp1928
g2
g62
sg4
g10
(g65
S'\x01\x00\x00\x00\x00\x00\x00\x00'
p1929
tp1930
Rp1931
sbasba(i__main__
Decision_Tree
p1932
(dp1933
g2
g41
sg4
g10
(g14
S'\x00\x00\x00\x00\x00\x00D@'
p1934
tp1935
Rp1936
sg5
(lp1937
(i__main__
Decision_Tree
p1938
(dp1939
g2
g62
sg4
g10
(g65
S'\x05\x00\x00\x00\x00\x00\x00\x00'
p1940
tp1941
Rp1942
sba(i__main__
Decision_Tree
p1943
(dp1944
g2
g62
sg4
g10
(g65
S'\x04\x00\x00\x00\x00\x00\x00\x00'
p1945
tp1946
Rp1947
sbasbasba(i__main__
Decision_Tree
p1948
(dp1949
g2
g48
sg4
g10
(g14
S'\x00\x00\x00\x00\x00\x803@'
p1950
tp1951
Rp1952
sg5
(lp1953
(i__main__
Decision_Tree
p1954
(dp1955
g2
g41
sg4
g10
(g14
S'\x00\x00\x00\x00\x00\x00#@'
p1956
tp1957
Rp1958
sg5
(lp1959
(i__main__
Decision_Tree
p1960
(dp1961
g2
g62
sg4
g10
(g65
S'\x04\x00\x00\x00\x00\x00\x00\x00'
p1962
tp1963
Rp1964
sba(i__main__
Decision_Tree
p1965
(dp1966
g2
g62
sg4
g10
(g65
S'\x04\x00\x00\x00\x00\x00\x00\x00'
p1967
tp1968
Rp1969
sbasba(i__main__
Decision_Tree
p1970
(dp1971
g2
g41
sg4
g10
(g14
S'\x00\x00\x00\x00\x00\x00>@'
p1972
tp1973
Rp1974
sg5
(lp1975
(i__main__
Decision_Tree
p1976
(dp1977
g2
g62
sg4
g10
(g65
S'\x04\x00\x00\x00\x00\x00\x00\x00'
p1978
tp1979
Rp1980
sba(i__main__
Decision_Tree
p1981
(dp1982
g2
g62
sg4
g10
(g65
S'\x05\x00\x00\x00\x00\x00\x00\x00'
p1983
tp1984
Rp1985
sbasbasbasba(i__main__
Decision_Tree
p1986
(dp1987
g2
g41
sg4
g10
(g14
S'\x00\x00\x00\x00\x00\x00>@'
p1988
tp1989
Rp1990
sg5
(lp1991
(i__main__
Decision_Tree
p1992
(dp1993
g2
g48
sg4
g10
(g14
S'\x00\x00\x00\x00\x00\x802@'
p1994
tp1995
Rp1996
sg5
(lp1997
(i__main__
Decision_Tree
p1998
(dp1999
g2
g55
sg4
(lp2000
g57
ag58
asg5
(lp2001
(i__main__
Decision_Tree
p2002
(dp2003
g2
g62
sg4
g10
(g65
S'\x04\x00\x00\x00\x00\x00\x00\x00'
p2004
tp2005
Rp2006
sba(i__main__
Decision_Tree
p2007
(dp2008
g2
g62
sg4
g10
(g65
S'\x04\x00\x00\x00\x00\x00\x00\x00'
p2009
tp2010
Rp2011
sbasba(i__main__
Decision_Tree
p2012
(dp2013
g2
g55
sg4
(lp2014
g57
ag58
asg5
(lp2015
(i__main__
Decision_Tree
p2016
(dp2017
g2
g62
sg4
g10
(g65
S'\x04\x00\x00\x00\x00\x00\x00\x00'
p2018
tp2019
Rp2020
sba(i__main__
Decision_Tree
p2021
(dp2022
g2
g62
sg4
g10
(g65
S'\x04\x00\x00\x00\x00\x00\x00\x00'
p2023
tp2024
Rp2025
sbasbasba(i__main__
Decision_Tree
p2026
(dp2027
g2
g55
sg4
(lp2028
g57
ag58
asg5
(lp2029
(i__main__
Decision_Tree
p2030
(dp2031
g2
g48
sg4
g10
(g14
S'\x00\x00\x00\x00\x00\x00\xe0?'
p2032
tp2033
Rp2034
sg5
(lp2035
(i__main__
Decision_Tree
p2036
(dp2037
g2
g62
sg4
g10
(g65
S'\x04\x00\x00\x00\x00\x00\x00\x00'
p2038
tp2039
Rp2040
sba(i__main__
Decision_Tree
p2041
(dp2042
g2
g62
sg4
g10
(g65
S'\x04\x00\x00\x00\x00\x00\x00\x00'
p2043
tp2044
Rp2045
sbasba(i__main__
Decision_Tree
p2046
(dp2047
g2
g48
sg4
g10
(g14
S'\x00\x00\x00\x00\x00\x00\xe0?'
p2048
tp2049
Rp2050
sg5
(lp2051
(i__main__
Decision_Tree
p2052
(dp2053
g2
g62
sg4
g10
(g65
S'\x04\x00\x00\x00\x00\x00\x00\x00'
p2054
tp2055
Rp2056
sba(i__main__
Decision_Tree
p2057
(dp2058
g2
g62
sg4
g10
(g65
S'\x04\x00\x00\x00\x00\x00\x00\x00'
p2059
tp2060
Rp2061
sbasbasbasba(i__main__
Decision_Tree
p2062
(dp2063
g2
g41
sg4
g10
(g14
S'\x00\x00\x00\x00\x00\x805@'
p2064
tp2065
Rp2066
sg5
(lp2067
(i__main__
Decision_Tree
p2068
(dp2069
g2
g48
sg4
g10
(g14
S'\x00\x00\x00\x00\x00\x802@'
p2070
tp2071
Rp2072
sg5
(lp2073
(i__main__
Decision_Tree
p2074
(dp2075
g2
g55
sg4
(lp2076
g57
ag58
asg5
(lp2077
(i__main__
Decision_Tree
p2078
(dp2079
g2
g62
sg4
g10
(g65
S'\x04\x00\x00\x00\x00\x00\x00\x00'
p2080
tp2081
Rp2082
sba(i__main__
Decision_Tree
p2083
(dp2084
g2
g62
sg4
g10
(g65
S'\x03\x00\x00\x00\x00\x00\x00\x00'
p2085
tp2086
Rp2087
sbasba(i__main__
Decision_Tree
p2088
(dp2089
g2
g55
sg4
(lp2090
g57
ag58
asg5
(lp2091
(i__main__
Decision_Tree
p2092
(dp2093
g2
g62
sg4
g10
(g65
S'\x03\x00\x00\x00\x00\x00\x00\x00'
p2094
tp2095
Rp2096
sba(i__main__
Decision_Tree
p2097
(dp2098
g2
g62
sg4
g10
(g65
S'\x03\x00\x00\x00\x00\x00\x00\x00'
p2099
tp2100
Rp2101
sbasbasba(i__main__
Decision_Tree
p2102
(dp2103
g2
g55
sg4
(lp2104
g57
ag58
asg5
(lp2105
(i__main__
Decision_Tree
p2106
(dp2107
g2
g48
sg4
g10
(g14
S'\x00\x00\x00\x00\x00\x00\x12@'
p2108
tp2109
Rp2110
sg5
(lp2111
(i__main__
Decision_Tree
p2112
(dp2113
g2
g62
sg4
g10
(g65
S'\x03\x00\x00\x00\x00\x00\x00\x00'
p2114
tp2115
Rp2116
sba(i__main__
Decision_Tree
p2117
(dp2118
g2
g62
sg4
g10
(g65
S'\x04\x00\x00\x00\x00\x00\x00\x00'
p2119
tp2120
Rp2121
sbasba(i__main__
Decision_Tree
p2122
(dp2123
g2
g48
sg4
g10
(g14
S'\x00\x00\x00\x00\x00\x00\x12@'
p2124
tp2125
Rp2126
sg5
(lp2127
(i__main__
Decision_Tree
p2128
(dp2129
g2
g62
sg4
g10
(g65
S'\x04\x00\x00\x00\x00\x00\x00\x00'
p2130
tp2131
Rp2132
sba(i__main__
Decision_Tree
p2133
(dp2134
g2
g62
sg4
g10
(g65
S'\x04\x00\x00\x00\x00\x00\x00\x00'
p2135
tp2136
Rp2137
sbasbasbasba(i__main__
Decision_Tree
p2138
(dp2139
g2
g48
sg4
g10
(g14
S'\x00\x00\x00\x00\x00\x00#@'
p2140
tp2141
Rp2142
sg5
(lp2143
(i__main__
Decision_Tree
p2144
(dp2145
g2
g41
sg4
g10
(g14
S'\x00\x00\x00\x00\x00\x00>@'
p2146
tp2147
Rp2148
sg5
(lp2149
(i__main__
Decision_Tree
p2150
(dp2151
g2
g55
sg4
(lp2152
g57
ag58
asg5
(lp2153
(i__main__
Decision_Tree
p2154
(dp2155
g2
g62
sg4
g10
(g65
S'\x04\x00\x00\x00\x00\x00\x00\x00'
p2156
tp2157
Rp2158
sba(i__main__
Decision_Tree
p2159
(dp2160
g2
g62
sg4
g10
(g65
S'\x04\x00\x00\x00\x00\x00\x00\x00'
p2161
tp2162
Rp2163
sbasba(i__main__
Decision_Tree
p2164
(dp2165
g2
g55
sg4
(lp2166
g57
ag58
asg5
(lp2167
(i__main__
Decision_Tree
p2168
(dp2169
g2
g62
sg4
g10
(g65
S'\x04\x00\x00\x00\x00\x00\x00\x00'
p2170
tp2171
Rp2172
sba(i__main__
Decision_Tree
p2173
(dp2174
g2
g62
sg4
g10
(g65
S'\x04\x00\x00\x00\x00\x00\x00\x00'
p2175
tp2176
Rp2177
sbasbasba(i__main__
Decision_Tree
p2178
(dp2179
g2
g41
sg4
g10
(g14
S'\x00\x00\x00\x00\x00\x00#@'
p2180
tp2181
Rp2182
sg5
(lp2183
(i__main__
Decision_Tree
p2184
(dp2185
g2
g55
sg4
(lp2186
g57
ag58
asg5
(lp2187
(i__main__
Decision_Tree
p2188
(dp2189
g2
g62
sg4
g10
(g65
S'\x05\x00\x00\x00\x00\x00\x00\x00'
p2190
tp2191
Rp2192
sba(i__main__
Decision_Tree
p2193
(dp2194
g2
g62
sg4
g10
(g65
S'\x05\x00\x00\x00\x00\x00\x00\x00'
p2195
tp2196
Rp2197
sbasba(i__main__
Decision_Tree
p2198
(dp2199
g2
g55
sg4
(lp2200
g57
ag58
asg5
(lp2201
(i__main__
Decision_Tree
p2202
(dp2203
g2
g62
sg4
g10
(g65
S'\x04\x00\x00\x00\x00\x00\x00\x00'
p2204
tp2205
Rp2206
sba(i__main__
Decision_Tree
p2207
(dp2208
g2
g62
sg4
g10
(g65
S'\x04\x00\x00\x00\x00\x00\x00\x00'
p2209
tp2210
Rp2211
sbasbasbasba(i__main__
Decision_Tree
p2212
(dp2213
g2
g41
sg4
g10
(g14
S'\x00\x00\x00\x00\x00\xc0G@'
p2214
tp2215
Rp2216
sg5
(lp2217
(i__main__
Decision_Tree
p2218
(dp2219
g2
g48
sg4
g10
(g14
S"\x00\x00\x00\x00\x00\x00'@"
p2220
tp2221
Rp2222
sg5
(lp2223
(i__main__
Decision_Tree
p2224
(dp2225
g2
g55
sg4
(lp2226
g57
ag58
asg5
(lp2227
(i__main__
Decision_Tree
p2228
(dp2229
g2
g62
sg4
g10
(g65
S'\x03\x00\x00\x00\x00\x00\x00\x00'
p2230
tp2231
Rp2232
sba(i__main__
Decision_Tree
p2233
(dp2234
g2
g62
sg4
g10
(g65
S'\x03\x00\x00\x00\x00\x00\x00\x00'
p2235
tp2236
Rp2237
sbasba(i__main__
Decision_Tree
p2238
(dp2239
g2
g55
sg4
(lp2240
g57
ag58
asg5
(lp2241
(i__main__
Decision_Tree
p2242
(dp2243
g2
g62
sg4
g10
(g65
S'\x03\x00\x00\x00\x00\x00\x00\x00'
p2244
tp2245
Rp2246
sba(i__main__
Decision_Tree
p2247
(dp2248
g2
g62
sg4
g10
(g65
S'\x03\x00\x00\x00\x00\x00\x00\x00'
p2249
tp2250
Rp2251
sbasbasba(i__main__
Decision_Tree
p2252
(dp2253
g2
g48
sg4
g10
(g14
S'\x00\x00\x00\x00\x00\x00\xf8?'
p2254
tp2255
Rp2256
sg5
(lp2257
(i__main__
Decision_Tree
p2258
(dp2259
g2
g55
sg4
(lp2260
g57
ag58
asg5
(lp2261
(i__main__
Decision_Tree
p2262
(dp2263
g2
g62
sg4
g10
(g65
S'\x01\x00\x00\x00\x00\x00\x00\x00'
p2264
tp2265
Rp2266
sba(i__main__
Decision_Tree
p2267
(dp2268
g2
g62
sg4
g10
(g65
S'\x04\x00\x00\x00\x00\x00\x00\x00'
p2269
tp2270
Rp2271
sbasba(i__main__
Decision_Tree
p2272
(dp2273
g2
g55
sg4
(lp2274
g57
ag58
asg5
(lp2275
(i__main__
Decision_Tree
p2276
(dp2277
g2
g62
sg4
g10
(g65
S'\x04\x00\x00\x00\x00\x00\x00\x00'
p2278
tp2279
Rp2280
sba(i__main__
Decision_Tree
p2281
(dp2282
g2
g62
sg4
g10
(g65
S'\x03\x00\x00\x00\x00\x00\x00\x00'
p2283
tp2284
Rp2285
sbasbasbasba(i__main__
Decision_Tree
p2286
(dp2287
g2
g55
sg4
(lp2288
g57
ag58
asg5
(lp2289
(i__main__
Decision_Tree
p2290
(dp2291
g2
g41
sg4
g10
(g14
S'\x00\x00\x00\x00\x00\x00>@'
p2292
tp2293
Rp2294
sg5
(lp2295
(i__main__
Decision_Tree
p2296
(dp2297
g2
g48
sg4
g10
(g14
S"\x00\x00\x00\x00\x00\x00'@"
p2298
tp2299
Rp2300
sg5
(lp2301
(i__main__
Decision_Tree
p2302
(dp2303
g2
g62
sg4
g10
(g65
S'\x04\x00\x00\x00\x00\x00\x00\x00'
p2304
tp2305
Rp2306
sba(i__main__
Decision_Tree
p2307
(dp2308
g2
g62
sg4
g10
(g65
S'\x04\x00\x00\x00\x00\x00\x00\x00'
p2309
tp2310
Rp2311
sbasba(i__main__
Decision_Tree
p2312
(dp2313
g2
g48
sg4
g10
(g14
S'\x00\x00\x00\x00\x00\x00\x1e@'
p2314
tp2315
Rp2316
sg5
(lp2317
(i__main__
Decision_Tree
p2318
(dp2319
g2
g62
sg4
g10
(g65
S'\x04\x00\x00\x00\x00\x00\x00\x00'
p2320
tp2321
Rp2322
sba(i__main__
Decision_Tree
p2323
(dp2324
g2
g62
sg4
g10
(g65
S'\x04\x00\x00\x00\x00\x00\x00\x00'
p2325
tp2326
Rp2327
sbasbasba(i__main__
Decision_Tree
p2328
(dp2329
g2
g41
sg4
g10
(g14
S'\x00\x00\x00\x00\x00\x805@'
p2330
tp2331
Rp2332
sg5
(lp2333
(i__main__
Decision_Tree
p2334
(dp2335
g2
g48
sg4
g10
(g14
S'\x00\x00\x00\x00\x00\x00\x04@'
p2336
tp2337
Rp2338
sg5
(lp2339
(i__main__
Decision_Tree
p2340
(dp2341
g2
g62
sg4
g10
(g65
S'\x03\x00\x00\x00\x00\x00\x00\x00'
p2342
tp2343
Rp2344
sba(i__main__
Decision_Tree
p2345
(dp2346
g2
g62
sg4
g10
(g65
S'\x04\x00\x00\x00\x00\x00\x00\x00'
p2347
tp2348
Rp2349
sbasba(i__main__
Decision_Tree
p2350
(dp2351
g2
g48
sg4
g10
(g14
S'\x00\x00\x00\x00\x00\x00\x0c@'
p2352
tp2353
Rp2354
sg5
(lp2355
(i__main__
Decision_Tree
p2356
(dp2357
g2
g62
sg4
g10
(g65
S'\x04\x00\x00\x00\x00\x00\x00\x00'
p2358
tp2359
Rp2360
sba(i__main__
Decision_Tree
p2361
(dp2362
g2
g62
sg4
g10
(g65
S'\x04\x00\x00\x00\x00\x00\x00\x00'
p2363
tp2364
Rp2365
sbasbasbasba(i__main__
Decision_Tree
p2366
(dp2367
g2
g41
sg4
g10
(g14
S'\x00\x00\x00\x00\x00\x805@'
p2368
tp2369
Rp2370
sg5
(lp2371
(i__main__
Decision_Tree
p2372
(dp2373
g2
g48
sg4
g10
(g14
S'\x00\x00\x00\x00\x00\x802@'
p2374
tp2375
Rp2376
sg5
(lp2377
(i__main__
Decision_Tree
p2378
(dp2379
g2
g55
sg4
(lp2380
g57
ag58
asg5
(lp2381
(i__main__
Decision_Tree
p2382
(dp2383
g2
g62
sg4
g10
(g65
S'\x04\x00\x00\x00\x00\x00\x00\x00'
p2384
tp2385
Rp2386
sba(i__main__
Decision_Tree
p2387
(dp2388
g2
g62
sg4
g10
(g65
S'\x04\x00\x00\x00\x00\x00\x00\x00'
p2389
tp2390
Rp2391
sbasba(i__main__
Decision_Tree
p2392
(dp2393
g2
g55
sg4
(lp2394
g57
ag58
asg5
(lp2395
(i__main__
Decision_Tree
p2396
(dp2397
g2
g62
sg4
g10
(g65
S'\x04\x00\x00\x00\x00\x00\x00\x00'
p2398
tp2399
Rp2400
sba(i__main__
Decision_Tree
p2401
(dp2402
g2
g62
sg4
g10
(g65
S'\x01\x00\x00\x00\x00\x00\x00\x00'
p2403
tp2404
Rp2405
sbasbasba(i__main__
Decision_Tree
p2406
(dp2407
g2
g48
sg4
g10
(g14
S'\x00\x00\x00\x00\x00\x00\x16@'
p2408
tp2409
Rp2410
sg5
(lp2411
(i__main__
Decision_Tree
p2412
(dp2413
g2
g55
sg4
(lp2414
g57
ag58
asg5
(lp2415
(i__main__
Decision_Tree
p2416
(dp2417
g2
g62
sg4
g10
(g65
S'\x04\x00\x00\x00\x00\x00\x00\x00'
p2418
tp2419
Rp2420
sba(i__main__
Decision_Tree
p2421
(dp2422
g2
g62
sg4
g10
(g65
S'\x04\x00\x00\x00\x00\x00\x00\x00'
p2423
tp2424
Rp2425
sbasba(i__main__
Decision_Tree
p2426
(dp2427
g2
g55
sg4
(lp2428
g57
ag58
asg5
(lp2429
(i__main__
Decision_Tree
p2430
(dp2431
g2
g62
sg4
g10
(g65
S'\x04\x00\x00\x00\x00\x00\x00\x00'
p2432
tp2433
Rp2434
sba(i__main__
Decision_Tree
p2435
(dp2436
g2
g62
sg4
g10
(g65
S'\x04\x00\x00\x00\x00\x00\x00\x00'
p2437
tp2438
Rp2439
sbasbasbasba(i__main__
Decision_Tree
p2440
(dp2441
g2
g55
sg4
(lp2442
g57
ag58
asg5
(lp2443
(i__main__
Decision_Tree
p2444
(dp2445
g2
g41
sg4
g10
(g14
S'\x00\x00\x00\x00\x00\x00>@'
p2446
tp2447
Rp2448
sg5
(lp2449
(i__main__
Decision_Tree
p2450
(dp2451
g2
g48
sg4
g10
(g14
S'\x00\x00\x00\x00\x00\x802@'
p2452
tp2453
Rp2454
sg5
(lp2455
(i__main__
Decision_Tree
p2456
(dp2457
g2
g62
sg4
g10
(g65
S'\x04\x00\x00\x00\x00\x00\x00\x00'
p2458
tp2459
Rp2460
sba(i__main__
Decision_Tree
p2461
(dp2462
g2
g62
sg4
g10
(g65
S'\x04\x00\x00\x00\x00\x00\x00\x00'
p2463
tp2464
Rp2465
sbasba(i__main__
Decision_Tree
p2466
(dp2467
g2
g48
sg4
g10
(g14
S'\x00\x00\x00\x00\x00\x801@'
p2468
tp2469
Rp2470
sg5
(lp2471
(i__main__
Decision_Tree
p2472
(dp2473
g2
g62
sg4
g10
(g65
S'\x04\x00\x00\x00\x00\x00\x00\x00'
p2474
tp2475
Rp2476
sba(i__main__
Decision_Tree
p2477
(dp2478
g2
g62
sg4
g10
(g65
S'\x04\x00\x00\x00\x00\x00\x00\x00'
p2479
tp2480
Rp2481
sbasbasba(i__main__
Decision_Tree
p2482
(dp2483
g2
g41
sg4
g10
(g14
S'\x00\x00\x00\x00\x00\x00>@'
p2484
tp2485
Rp2486
sg5
(lp2487
(i__main__
Decision_Tree
p2488
(dp2489
g2
g48
sg4
g10
(g14
S'\x00\x00\x00\x00\x00\x802@'
p2490
tp2491
Rp2492
sg5
(lp2493
(i__main__
Decision_Tree
p2494
(dp2495
g2
g62
sg4
g10
(g65
S'\x04\x00\x00\x00\x00\x00\x00\x00'
p2496
tp2497
Rp2498
sba(i__main__
Decision_Tree
p2499
(dp2500
g2
g62
sg4
g10
(g65
S'\x03\x00\x00\x00\x00\x00\x00\x00'
p2501
tp2502
Rp2503
sbasba(i__main__
Decision_Tree
p2504
(dp2505
g2
g48
sg4
g10
(g14
S'\x00\x00\x00\x00\x00\x00\xe0?'
p2506
tp2507
Rp2508
sg5
(lp2509
(i__main__
Decision_Tree
p2510
(dp2511
g2
g62
sg4
g10
(g65
S'\x04\x00\x00\x00\x00\x00\x00\x00'
p2512
tp2513
Rp2514
sba(i__main__
Decision_Tree
p2515
(dp2516
g2
g62
sg4
g10
(g65
S'\x04\x00\x00\x00\x00\x00\x00\x00'
p2517
tp2518
Rp2519
sbasbasbasba(i__main__
Decision_Tree
p2520
(dp2521
g2
g41
sg4
g10
(g14
S'\x00\x00\x00\x00\x00\x00>@'
p2522
tp2523
Rp2524
sg5
(lp2525
(i__main__
Decision_Tree
p2526
(dp2527
g2
g48
sg4
g10
(g14
S'\x00\x00\x00\x00\x00\x802@'
p2528
tp2529
Rp2530
sg5
(lp2531
(i__main__
Decision_Tree
p2532
(dp2533
g2
g55
sg4
(lp2534
g57
ag58
asg5
(lp2535
(i__main__
Decision_Tree
p2536
(dp2537
g2
g62
sg4
g10
(g65
S'\x04\x00\x00\x00\x00\x00\x00\x00'
p2538
tp2539
Rp2540
sba(i__main__
Decision_Tree
p2541
(dp2542
g2
g62
sg4
g10
(g65
S'\x04\x00\x00\x00\x00\x00\x00\x00'
p2543
tp2544
Rp2545
sbasba(i__main__
Decision_Tree
p2546
(dp2547
g2
g55
sg4
(lp2548
g57
ag58
asg5
(lp2549
(i__main__
Decision_Tree
p2550
(dp2551
g2
g62
sg4
g10
(g65
S'\x03\x00\x00\x00\x00\x00\x00\x00'
p2552
tp2553
Rp2554
sba(i__main__
Decision_Tree
p2555
(dp2556
g2
g62
sg4
g10
(g65
S'\x04\x00\x00\x00\x00\x00\x00\x00'
p2557
tp2558
Rp2559
sbasbasba(i__main__
Decision_Tree
p2560
(dp2561
g2
g48
sg4
g10
(g14
S'\x00\x00\x00\x00\x00\x00\xf8?'
p2562
tp2563
Rp2564
sg5
(lp2565
(i__main__
Decision_Tree
p2566
(dp2567
g2
g55
sg4
(lp2568
g57
ag58
asg5
(lp2569
(i__main__
Decision_Tree
p2570
(dp2571
g2
g62
sg4
g10
(g65
S'\x04\x00\x00\x00\x00\x00\x00\x00'
p2572
tp2573
Rp2574
sba(i__main__
Decision_Tree
p2575
(dp2576
g2
g62
sg4
g10
(g65
S'\x04\x00\x00\x00\x00\x00\x00\x00'
p2577
tp2578
Rp2579
sbasba(i__main__
Decision_Tree
p2580
(dp2581
g2
g55
sg4
(lp2582
g57
ag58
asg5
(lp2583
(i__main__
Decision_Tree
p2584
(dp2585
g2
g62
sg4
g10
(g65
S'\x04\x00\x00\x00\x00\x00\x00\x00'
p2586
tp2587
Rp2588
sba(i__main__
Decision_Tree
p2589
(dp2590
g2
g62
sg4
g10
(g65
S'\x04\x00\x00\x00\x00\x00\x00\x00'
p2591
tp2592
Rp2593
sbasbasbasba(i__main__
Decision_Tree
p2594
(dp2595
g2
g48
sg4
g10
(g14
S'\x00\x00\x00\x00\x00\x802@'
p2596
tp2597
Rp2598
sg5
(lp2599
(i__main__
Decision_Tree
p2600
(dp2601
g2
g41
sg4
g10
(g14
S'\x00\x00\x00\x00\x00\x805@'
p2602
tp2603
Rp2604
sg5
(lp2605
(i__main__
Decision_Tree
p2606
(dp2607
g2
g55
sg4
(lp2608
g57
ag58
asg5
(lp2609
(i__main__
Decision_Tree
p2610
(dp2611
g2
g62
sg4
g10
(g65
S'\x04\x00\x00\x00\x00\x00\x00\x00'
p2612
tp2613
Rp2614
sba(i__main__
Decision_Tree
p2615
(dp2616
g2
g62
sg4
g10
(g65
S'\x04\x00\x00\x00\x00\x00\x00\x00'
p2617
tp2618
Rp2619
sbasba(i__main__
Decision_Tree
p2620
(dp2621
g2
g55
sg4
(lp2622
g57
ag58
asg5
(lp2623
(i__main__
Decision_Tree
p2624
(dp2625
g2
g62
sg4
g10
(g65
S'\x04\x00\x00\x00\x00\x00\x00\x00'
p2626
tp2627
Rp2628
sba(i__main__
Decision_Tree
p2629
(dp2630
g2
g62
sg4
g10
(g65
S'\x04\x00\x00\x00\x00\x00\x00\x00'
p2631
tp2632
Rp2633
sbasbasba(i__main__
Decision_Tree
p2634
(dp2635
g2
g41
sg4
g10
(g14
S'\x00\x00\x00\x00\x00\x00>@'
p2636
tp2637
Rp2638
sg5
(lp2639
(i__main__
Decision_Tree
p2640
(dp2641
g2
g55
sg4
(lp2642
g57
ag58
asg5
(lp2643
(i__main__
Decision_Tree
p2644
(dp2645
g2
g62
sg4
g10
(g65
S'\x04\x00\x00\x00\x00\x00\x00\x00'
p2646
tp2647
Rp2648
sba(i__main__
Decision_Tree
p2649
(dp2650
g2
g62
sg4
g10
(g65
S'\x03\x00\x00\x00\x00\x00\x00\x00'
p2651
tp2652
Rp2653
sbasba(i__main__
Decision_Tree
p2654
(dp2655
g2
g55
sg4
(lp2656
g57
ag58
asg5
(lp2657
(i__main__
Decision_Tree
p2658
(dp2659
g2
g62
sg4
g10
(g65
S'\x04\x00\x00\x00\x00\x00\x00\x00'
p2660
tp2661
Rp2662
sba(i__main__
Decision_Tree
p2663
(dp2664
g2
g62
sg4
g10
(g65
S'\x04\x00\x00\x00\x00\x00\x00\x00'
p2665
tp2666
Rp2667
sbasbasbasba(i__main__
Decision_Tree
p2668
(dp2669
g2
g48
sg4
g10
(g14
S'\x00\x00\x00\x00\x00\x802@'
p2670
tp2671
Rp2672
sg5
(lp2673
(i__main__
Decision_Tree
p2674
(dp2675
g2
g41
sg4
g10
(g14
S'\x00\x00\x00\x00\x00\x805@'
p2676
tp2677
Rp2678
sg5
(lp2679
(i__main__
Decision_Tree
p2680
(dp2681
g2
g55
sg4
(lp2682
g57
ag58
asg5
(lp2683
(i__main__
Decision_Tree
p2684
(dp2685
g2
g62
sg4
g10
(g65
S'\x05\x00\x00\x00\x00\x00\x00\x00'
p2686
tp2687
Rp2688
sba(i__main__
Decision_Tree
p2689
(dp2690
g2
g62
sg4
g10
(g65
S'\x04\x00\x00\x00\x00\x00\x00\x00'
p2691
tp2692
Rp2693
sbasba(i__main__
Decision_Tree
p2694
(dp2695
g2
g55
sg4
(lp2696
g57
ag58
asg5
(lp2697
(i__main__
Decision_Tree
p2698
(dp2699
g2
g62
sg4
g10
(g65
S'\x04\x00\x00\x00\x00\x00\x00\x00'
p2700
tp2701
Rp2702
sba(i__main__
Decision_Tree
p2703
(dp2704
g2
g62
sg4
g10
(g65
S'\x04\x00\x00\x00\x00\x00\x00\x00'
p2705
tp2706
Rp2707
sbasbasba(i__main__
Decision_Tree
p2708
(dp2709
g2
g55
sg4
(lp2710
g57
ag58
asg5
(lp2711
(i__main__
Decision_Tree
p2712
(dp2713
g2
g41
sg4
g10
(g14
S'\x00\x00\x00\x00\x00\xc0G@'
p2714
tp2715
Rp2716
sg5
(lp2717
(i__main__
Decision_Tree
p2718
(dp2719
g2
g62
sg4
g10
(g65
S'\x04\x00\x00\x00\x00\x00\x00\x00'
p2720
tp2721
Rp2722
sba(i__main__
Decision_Tree
p2723
(dp2724
g2
g62
sg4
g10
(g65
S'\x04\x00\x00\x00\x00\x00\x00\x00'
p2725
tp2726
Rp2727
sbasba(i__main__
Decision_Tree
p2728
(dp2729
g2
g41
sg4
g10
(g14
S'\x00\x00\x00\x00\x00\x805@'
p2730
tp2731
Rp2732
sg5
(lp2733
(i__main__
Decision_Tree
p2734
(dp2735
g2
g62
sg4
g10
(g65
S'\x04\x00\x00\x00\x00\x00\x00\x00'
p2736
tp2737
Rp2738
sba(i__main__
Decision_Tree
p2739
(dp2740
g2
g62
sg4
g10
(g65
S'\x04\x00\x00\x00\x00\x00\x00\x00'
p2741
tp2742
Rp2743
sbasbasbasba(i__main__
Decision_Tree
p2744
(dp2745
g2
g41
sg4
g10
(g14
S'\x00\x00\x00\x00\x00\xc0G@'
p2746
tp2747
Rp2748
sg5
(lp2749
(i__main__
Decision_Tree
p2750
(dp2751
g2
g48
sg4
g10
(g14
S'\x00\x00\x00\x00\x00\x802@'
p2752
tp2753
Rp2754
sg5
(lp2755
(i__main__
Decision_Tree
p2756
(dp2757
g2
g55
sg4
(lp2758
g57
ag58
asg5
(lp2759
(i__main__
Decision_Tree
p2760
(dp2761
g2
g62
sg4
g10
(g65
S'\x04\x00\x00\x00\x00\x00\x00\x00'
p2762
tp2763
Rp2764
sba(i__main__
Decision_Tree
p2765
(dp2766
g2
g62
sg4
g10
(g65
S'\x03\x00\x00\x00\x00\x00\x00\x00'
p2767
tp2768
Rp2769
sbasba(i__main__
Decision_Tree
p2770
(dp2771
g2
g55
sg4
(lp2772
g57
ag58
asg5
(lp2773
(i__main__
Decision_Tree
p2774
(dp2775
g2
g62
sg4
g10
(g65
S'\x04\x00\x00\x00\x00\x00\x00\x00'
p2776
tp2777
Rp2778
sba(i__main__
Decision_Tree
p2779
(dp2780
g2
g62
sg4
g10
(g65
S'\x03\x00\x00\x00\x00\x00\x00\x00'
p2781
tp2782
Rp2783
sbasbasba(i__main__
Decision_Tree
p2784
(dp2785
g2
g55
sg4
(lp2786
g57
ag58
asg5
(lp2787
(i__main__
Decision_Tree
p2788
(dp2789
g2
g48
sg4
g10
(g14
S'\x00\x00\x00\x00\x00\x801@'
p2790
tp2791
Rp2792
sg5
(lp2793
(i__main__
Decision_Tree
p2794
(dp2795
g2
g62
sg4
g10
(g65
S'\x03\x00\x00\x00\x00\x00\x00\x00'
p2796
tp2797
Rp2798
sba(i__main__
Decision_Tree
p2799
(dp2800
g2
g62
sg4
g10
(g65
S'\x04\x00\x00\x00\x00\x00\x00\x00'
p2801
tp2802
Rp2803
sbasba(i__main__
Decision_Tree
p2804
(dp2805
g2
g48
sg4
g10
(g14
S'\x00\x00\x00\x00\x00\x00!@'
p2806
tp2807
Rp2808
sg5
(lp2809
(i__main__
Decision_Tree
p2810
(dp2811
g2
g62
sg4
g10
(g65
S'\x03\x00\x00\x00\x00\x00\x00\x00'
p2812
tp2813
Rp2814
sba(i__main__
Decision_Tree
p2815
(dp2816
g2
g62
sg4
g10
(g65
S'\x04\x00\x00\x00\x00\x00\x00\x00'
p2817
tp2818
Rp2819
sbasbasbasbasbasbasb.